
atmega1284p.elf:     file format elf32-avr

Sections:
Idx Name          Size      VMA       LMA       File off  Algn
  0 .data         0000041a  00800100  00004d04  00004d98  2**0
                  CONTENTS, ALLOC, LOAD, DATA
  1 .text         00004d04  00000000  00000000  00000094  2**1
                  CONTENTS, ALLOC, LOAD, READONLY, CODE
  2 .bss          00000481  0080051a  0080051a  000051b2  2**0
                  ALLOC
  3 .comment      0000005c  00000000  00000000  000051b2  2**0
                  CONTENTS, READONLY
  4 .note.gnu.avr.deviceinfo 00000040  00000000  00000000  00005210  2**2
                  CONTENTS, READONLY
  5 .debug_aranges 00000668  00000000  00000000  00005250  2**3
                  CONTENTS, READONLY, DEBUGGING
  6 .debug_info   00009c48  00000000  00000000  000058b8  2**0
                  CONTENTS, READONLY, DEBUGGING
  7 .debug_abbrev 00002c81  00000000  00000000  0000f500  2**0
                  CONTENTS, READONLY, DEBUGGING
  8 .debug_line   0000472d  00000000  00000000  00012181  2**0
                  CONTENTS, READONLY, DEBUGGING
  9 .debug_frame  000016a4  00000000  00000000  000168b0  2**2
                  CONTENTS, READONLY, DEBUGGING
 10 .debug_str    0000233f  00000000  00000000  00017f54  2**0
                  CONTENTS, READONLY, DEBUGGING
 11 .debug_loc    000067c7  00000000  00000000  0001a293  2**0
                  CONTENTS, READONLY, DEBUGGING
 12 .debug_ranges 000006a8  00000000  00000000  00020a5a  2**0
                  CONTENTS, READONLY, DEBUGGING

Disassembly of section .text:

00000000 <__vectors>:
       0:	a6 c0       	rjmp	.+332    	; 0x14e <__ctors_end>
       2:	00 00       	nop
       4:	0c 94 b0 18 	jmp	0x3160	; 0x3160 <__vector_1>
       8:	0c 94 d9 18 	jmp	0x31b2	; 0x31b2 <__vector_2>
       c:	0c 94 d7 17 	jmp	0x2fae	; 0x2fae <__vector_3>
      10:	bd c0       	rjmp	.+378    	; 0x18c <__bad_interrupt>
      12:	00 00       	nop
      14:	bb c0       	rjmp	.+374    	; 0x18c <__bad_interrupt>
      16:	00 00       	nop
      18:	b9 c0       	rjmp	.+370    	; 0x18c <__bad_interrupt>
      1a:	00 00       	nop
      1c:	b7 c0       	rjmp	.+366    	; 0x18c <__bad_interrupt>
      1e:	00 00       	nop
      20:	b5 c0       	rjmp	.+362    	; 0x18c <__bad_interrupt>
      22:	00 00       	nop
      24:	b3 c0       	rjmp	.+358    	; 0x18c <__bad_interrupt>
      26:	00 00       	nop
      28:	b1 c0       	rjmp	.+354    	; 0x18c <__bad_interrupt>
      2a:	00 00       	nop
      2c:	af c0       	rjmp	.+350    	; 0x18c <__bad_interrupt>
      2e:	00 00       	nop
      30:	ad c0       	rjmp	.+346    	; 0x18c <__bad_interrupt>
      32:	00 00       	nop
      34:	0c 94 6c 1e 	jmp	0x3cd8	; 0x3cd8 <__vector_13>
      38:	0c 94 88 1e 	jmp	0x3d10	; 0x3d10 <__vector_14>
      3c:	a7 c0       	rjmp	.+334    	; 0x18c <__bad_interrupt>
      3e:	00 00       	nop
      40:	a5 c0       	rjmp	.+330    	; 0x18c <__bad_interrupt>
      42:	00 00       	nop
      44:	a3 c0       	rjmp	.+326    	; 0x18c <__bad_interrupt>
      46:	00 00       	nop
      48:	a1 c0       	rjmp	.+322    	; 0x18c <__bad_interrupt>
      4a:	00 00       	nop
      4c:	0c 94 f4 1c 	jmp	0x39e8	; 0x39e8 <__vector_19>
      50:	9d c0       	rjmp	.+314    	; 0x18c <__bad_interrupt>
      52:	00 00       	nop
      54:	9b c0       	rjmp	.+310    	; 0x18c <__bad_interrupt>
      56:	00 00       	nop
      58:	99 c0       	rjmp	.+306    	; 0x18c <__bad_interrupt>
      5a:	00 00       	nop
      5c:	97 c0       	rjmp	.+302    	; 0x18c <__bad_interrupt>
      5e:	00 00       	nop
      60:	95 c0       	rjmp	.+298    	; 0x18c <__bad_interrupt>
      62:	00 00       	nop
      64:	93 c0       	rjmp	.+294    	; 0x18c <__bad_interrupt>
      66:	00 00       	nop
      68:	a4 c3       	rjmp	.+1864   	; 0x7b2 <__vector_26>
      6a:	00 00       	nop
      6c:	8f c0       	rjmp	.+286    	; 0x18c <__bad_interrupt>
      6e:	00 00       	nop
      70:	8d c0       	rjmp	.+282    	; 0x18c <__bad_interrupt>
      72:	00 00       	nop
      74:	8b c0       	rjmp	.+278    	; 0x18c <__bad_interrupt>
      76:	00 00       	nop
      78:	89 c0       	rjmp	.+274    	; 0x18c <__bad_interrupt>
      7a:	00 00       	nop
      7c:	87 c0       	rjmp	.+270    	; 0x18c <__bad_interrupt>
      7e:	00 00       	nop
      80:	0c 94 d7 1e 	jmp	0x3dae	; 0x3dae <__vector_32>
      84:	0c 94 08 1f 	jmp	0x3e10	; 0x3e10 <__vector_33>
      88:	81 c0       	rjmp	.+258    	; 0x18c <__bad_interrupt>
      8a:	00 00       	nop
      8c:	60 04       	cpc	r6, r0
      8e:	6c 04       	cpc	r6, r12
      90:	6c 04       	cpc	r6, r12
      92:	6c 04       	cpc	r6, r12
      94:	6c 04       	cpc	r6, r12
      96:	6c 04       	cpc	r6, r12
      98:	6c 04       	cpc	r6, r12
      9a:	6c 04       	cpc	r6, r12
      9c:	f9 03       	fmulsu	r23, r17
      9e:	6c 04       	cpc	r6, r12
      a0:	6c 04       	cpc	r6, r12
      a2:	6c 04       	cpc	r6, r12
      a4:	6c 04       	cpc	r6, r12
      a6:	6c 04       	cpc	r6, r12
      a8:	6c 04       	cpc	r6, r12
      aa:	6c 04       	cpc	r6, r12
      ac:	f9 03       	fmulsu	r23, r17
      ae:	6c 04       	cpc	r6, r12
      b0:	6c 04       	cpc	r6, r12
      b2:	6c 04       	cpc	r6, r12
      b4:	6c 04       	cpc	r6, r12
      b6:	6c 04       	cpc	r6, r12
      b8:	6c 04       	cpc	r6, r12
      ba:	6c 04       	cpc	r6, r12
      bc:	03 04       	cpc	r0, r3
      be:	6c 04       	cpc	r6, r12
      c0:	6c 04       	cpc	r6, r12
      c2:	6c 04       	cpc	r6, r12
      c4:	6c 04       	cpc	r6, r12
      c6:	6c 04       	cpc	r6, r12
      c8:	6c 04       	cpc	r6, r12
      ca:	6c 04       	cpc	r6, r12
      cc:	60 04       	cpc	r6, r0
      ce:	6c 04       	cpc	r6, r12
      d0:	6c 04       	cpc	r6, r12
      d2:	6c 04       	cpc	r6, r12
      d4:	6c 04       	cpc	r6, r12
      d6:	6c 04       	cpc	r6, r12
      d8:	6c 04       	cpc	r6, r12
      da:	6c 04       	cpc	r6, r12
      dc:	03 04       	cpc	r0, r3
      de:	6c 04       	cpc	r6, r12
      e0:	6c 04       	cpc	r6, r12
      e2:	6c 04       	cpc	r6, r12
      e4:	6c 04       	cpc	r6, r12
      e6:	6c 04       	cpc	r6, r12
      e8:	6c 04       	cpc	r6, r12
      ea:	6c 04       	cpc	r6, r12
      ec:	60 04       	cpc	r6, r0
      ee:	6c 04       	cpc	r6, r12
      f0:	6c 04       	cpc	r6, r12
      f2:	6c 04       	cpc	r6, r12
      f4:	6c 04       	cpc	r6, r12
      f6:	6c 04       	cpc	r6, r12
      f8:	6c 04       	cpc	r6, r12
      fa:	6c 04       	cpc	r6, r12
      fc:	6c 04       	cpc	r6, r12
      fe:	6c 04       	cpc	r6, r12
     100:	6c 04       	cpc	r6, r12
     102:	6c 04       	cpc	r6, r12
     104:	6c 04       	cpc	r6, r12
     106:	6c 04       	cpc	r6, r12
     108:	6c 04       	cpc	r6, r12
     10a:	6c 04       	cpc	r6, r12
     10c:	3a 04       	cpc	r3, r10
     10e:	6c 04       	cpc	r6, r12
     110:	6c 04       	cpc	r6, r12
     112:	6c 04       	cpc	r6, r12
     114:	6c 04       	cpc	r6, r12
     116:	6c 04       	cpc	r6, r12
     118:	6c 04       	cpc	r6, r12
     11a:	6c 04       	cpc	r6, r12
     11c:	60 04       	cpc	r6, r0
     11e:	6c 04       	cpc	r6, r12
     120:	6c 04       	cpc	r6, r12
     122:	6c 04       	cpc	r6, r12
     124:	6c 04       	cpc	r6, r12
     126:	6c 04       	cpc	r6, r12
     128:	6c 04       	cpc	r6, r12
     12a:	6c 04       	cpc	r6, r12
     12c:	2e 04       	cpc	r2, r14
     12e:	6c 04       	cpc	r6, r12
     130:	6c 04       	cpc	r6, r12
     132:	6c 04       	cpc	r6, r12
     134:	6c 04       	cpc	r6, r12
     136:	6c 04       	cpc	r6, r12
     138:	6c 04       	cpc	r6, r12
     13a:	6c 04       	cpc	r6, r12
     13c:	4c 04       	cpc	r4, r12
     13e:	03 1b       	sub	r16, r19
     140:	eb 1a       	sub	r14, r27
     142:	ee 1a       	sub	r14, r30
     144:	f1 1a       	sub	r15, r17
     146:	f4 1a       	sub	r15, r20
     148:	f7 1a       	sub	r15, r23
     14a:	fa 1a       	sub	r15, r26
     14c:	fd 1a       	sub	r15, r29

0000014e <__ctors_end>:
     14e:	11 24       	eor	r1, r1
     150:	1f be       	out	0x3f, r1	; 63
     152:	cf ef       	ldi	r28, 0xFF	; 255
     154:	d0 e4       	ldi	r29, 0x40	; 64
     156:	de bf       	out	0x3e, r29	; 62
     158:	cd bf       	out	0x3d, r28	; 61

0000015a <__do_copy_data>:
     15a:	15 e0       	ldi	r17, 0x05	; 5
     15c:	a0 e0       	ldi	r26, 0x00	; 0
     15e:	b1 e0       	ldi	r27, 0x01	; 1
     160:	e4 e0       	ldi	r30, 0x04	; 4
     162:	fd e4       	ldi	r31, 0x4D	; 77
     164:	00 e0       	ldi	r16, 0x00	; 0
     166:	0b bf       	out	0x3b, r16	; 59
     168:	02 c0       	rjmp	.+4      	; 0x16e <__do_copy_data+0x14>
     16a:	07 90       	elpm	r0, Z+
     16c:	0d 92       	st	X+, r0
     16e:	aa 31       	cpi	r26, 0x1A	; 26
     170:	b1 07       	cpc	r27, r17
     172:	d9 f7       	brne	.-10     	; 0x16a <__do_copy_data+0x10>

00000174 <__do_clear_bss>:
     174:	29 e0       	ldi	r18, 0x09	; 9
     176:	aa e1       	ldi	r26, 0x1A	; 26
     178:	b5 e0       	ldi	r27, 0x05	; 5
     17a:	01 c0       	rjmp	.+2      	; 0x17e <.do_clear_bss_start>

0000017c <.do_clear_bss_loop>:
     17c:	1d 92       	st	X+, r1

0000017e <.do_clear_bss_start>:
     17e:	ab 39       	cpi	r26, 0x9B	; 155
     180:	b2 07       	cpc	r27, r18
     182:	e1 f7       	brne	.-8      	; 0x17c <.do_clear_bss_loop>
     184:	0e 94 60 18 	call	0x30c0	; 0x30c0 <main>
     188:	0c 94 80 26 	jmp	0x4d00	; 0x4d00 <_exit>

0000018c <__bad_interrupt>:
     18c:	39 cf       	rjmp	.-398    	; 0x0 <__vectors>

0000018e <LCD_WhileBusy>:
     18e:	e0 91 0c 08 	lds	r30, 0x080C	; 0x80080c <LcdDDR>
     192:	f0 91 0d 08 	lds	r31, 0x080D	; 0x80080d <LcdDDR+0x1>
     196:	8f e0       	ldi	r24, 0x0F	; 15
     198:	80 83       	st	Z, r24
     19a:	e0 91 16 08 	lds	r30, 0x0816	; 0x800816 <LcdPort>
     19e:	f0 91 17 08 	lds	r31, 0x0817	; 0x800817 <LcdPort+0x1>
     1a2:	82 e0       	ldi	r24, 0x02	; 2
     1a4:	80 83       	st	Z, r24
     1a6:	e0 91 16 08 	lds	r30, 0x0816	; 0x800816 <LcdPort>
     1aa:	f0 91 17 08 	lds	r31, 0x0817	; 0x800817 <LcdPort+0x1>
     1ae:	80 81       	ld	r24, Z
     1b0:	8e 7f       	andi	r24, 0xFE	; 254
     1b2:	80 83       	st	Z, r24
     1b4:	e0 91 16 08 	lds	r30, 0x0816	; 0x800816 <LcdPort>
     1b8:	f0 91 17 08 	lds	r31, 0x0817	; 0x800817 <LcdPort+0x1>
     1bc:	80 81       	ld	r24, Z
     1be:	82 60       	ori	r24, 0x02	; 2
     1c0:	80 83       	st	Z, r24
     1c2:	83 e0       	ldi	r24, 0x03	; 3
     1c4:	8a 95       	dec	r24
     1c6:	f1 f7       	brne	.-4      	; 0x1c4 <LCD_WhileBusy+0x36>
     1c8:	00 00       	nop
     1ca:	e0 91 16 08 	lds	r30, 0x0816	; 0x800816 <LcdPort>
     1ce:	f0 91 17 08 	lds	r31, 0x0817	; 0x800817 <LcdPort+0x1>
     1d2:	80 81       	ld	r24, Z
     1d4:	84 60       	ori	r24, 0x04	; 4
     1d6:	80 83       	st	Z, r24
     1d8:	93 e0       	ldi	r25, 0x03	; 3
     1da:	9a 95       	dec	r25
     1dc:	f1 f7       	brne	.-4      	; 0x1da <LCD_WhileBusy+0x4c>
     1de:	00 00       	nop
     1e0:	e0 91 10 08 	lds	r30, 0x0810	; 0x800810 <LcdPin>
     1e4:	f0 91 11 08 	lds	r31, 0x0811	; 0x800811 <LcdPin+0x1>
     1e8:	80 81       	ld	r24, Z
     1ea:	80 7f       	andi	r24, 0xF0	; 240
     1ec:	e0 91 16 08 	lds	r30, 0x0816	; 0x800816 <LcdPort>
     1f0:	f0 91 17 08 	lds	r31, 0x0817	; 0x800817 <LcdPort+0x1>
     1f4:	90 81       	ld	r25, Z
     1f6:	9b 7f       	andi	r25, 0xFB	; 251
     1f8:	90 83       	st	Z, r25
     1fa:	e0 91 16 08 	lds	r30, 0x0816	; 0x800816 <LcdPort>
     1fe:	f0 91 17 08 	lds	r31, 0x0817	; 0x800817 <LcdPort+0x1>
     202:	90 81       	ld	r25, Z
     204:	94 60       	ori	r25, 0x04	; 4
     206:	90 83       	st	Z, r25
     208:	93 e0       	ldi	r25, 0x03	; 3
     20a:	9a 95       	dec	r25
     20c:	f1 f7       	brne	.-4      	; 0x20a <LCD_WhileBusy+0x7c>
     20e:	00 00       	nop
     210:	e0 91 10 08 	lds	r30, 0x0810	; 0x800810 <LcdPin>
     214:	f0 91 11 08 	lds	r31, 0x0811	; 0x800811 <LcdPin+0x1>
     218:	90 81       	ld	r25, Z
     21a:	e0 91 16 08 	lds	r30, 0x0816	; 0x800816 <LcdPort>
     21e:	f0 91 17 08 	lds	r31, 0x0817	; 0x800817 <LcdPort+0x1>
     222:	90 81       	ld	r25, Z
     224:	9b 7f       	andi	r25, 0xFB	; 251
     226:	90 83       	st	Z, r25
     228:	88 23       	and	r24, r24
     22a:	7c f2       	brlt	.-98     	; 0x1ca <LCD_WhileBusy+0x3c>
     22c:	e0 91 0c 08 	lds	r30, 0x080C	; 0x80080c <LcdDDR>
     230:	f0 91 0d 08 	lds	r31, 0x080D	; 0x80080d <LcdDDR+0x1>
     234:	8f ef       	ldi	r24, 0xFF	; 255
     236:	80 83       	st	Z, r24
     238:	80 e0       	ldi	r24, 0x00	; 0
     23a:	08 95       	ret

0000023c <LCD_8Bit>:
     23c:	e0 91 16 08 	lds	r30, 0x0816	; 0x800816 <LcdPort>
     240:	f0 91 17 08 	lds	r31, 0x0817	; 0x800817 <LcdPort+0x1>
     244:	80 83       	st	Z, r24
     246:	e0 91 16 08 	lds	r30, 0x0816	; 0x800816 <LcdPort>
     24a:	f0 91 17 08 	lds	r31, 0x0817	; 0x800817 <LcdPort+0x1>
     24e:	80 81       	ld	r24, Z
     250:	84 60       	ori	r24, 0x04	; 4
     252:	80 83       	st	Z, r24
     254:	83 e0       	ldi	r24, 0x03	; 3
     256:	8a 95       	dec	r24
     258:	f1 f7       	brne	.-4      	; 0x256 <LCD_8Bit+0x1a>
     25a:	00 00       	nop
     25c:	e0 91 16 08 	lds	r30, 0x0816	; 0x800816 <LcdPort>
     260:	f0 91 17 08 	lds	r31, 0x0817	; 0x800817 <LcdPort+0x1>
     264:	80 81       	ld	r24, Z
     266:	8b 7f       	andi	r24, 0xFB	; 251
     268:	80 83       	st	Z, r24
     26a:	80 e0       	ldi	r24, 0x00	; 0
     26c:	08 95       	ret

0000026e <LCD_4Bit>:
     26e:	cf 93       	push	r28
     270:	df 93       	push	r29
     272:	c8 2f       	mov	r28, r24
     274:	d6 2f       	mov	r29, r22
     276:	80 7f       	andi	r24, 0xF0	; 240
     278:	86 2b       	or	r24, r22
     27a:	e0 df       	rcall	.-64     	; 0x23c <LCD_8Bit>
     27c:	20 e1       	ldi	r18, 0x10	; 16
     27e:	c2 9f       	mul	r28, r18
     280:	c0 01       	movw	r24, r0
     282:	11 24       	eor	r1, r1
     284:	8d 2b       	or	r24, r29
     286:	da df       	rcall	.-76     	; 0x23c <LCD_8Bit>
     288:	82 df       	rcall	.-252    	; 0x18e <LCD_WhileBusy>
     28a:	80 e0       	ldi	r24, 0x00	; 0
     28c:	df 91       	pop	r29
     28e:	cf 91       	pop	r28
     290:	08 95       	ret

00000292 <LCD_Clear>:
     292:	60 e0       	ldi	r22, 0x00	; 0
     294:	81 e0       	ldi	r24, 0x01	; 1
     296:	eb df       	rcall	.-42     	; 0x26e <LCD_4Bit>
     298:	87 e8       	ldi	r24, 0x87	; 135
     29a:	93 e1       	ldi	r25, 0x13	; 19
     29c:	01 97       	sbiw	r24, 0x01	; 1
     29e:	f1 f7       	brne	.-4      	; 0x29c <LCD_Clear+0xa>
     2a0:	00 c0       	rjmp	.+0      	; 0x2a2 <LCD_Clear+0x10>
     2a2:	00 00       	nop
     2a4:	80 e0       	ldi	r24, 0x00	; 0
     2a6:	08 95       	ret

000002a8 <LCD_Write2Lines>:
     2a8:	ef 92       	push	r14
     2aa:	ff 92       	push	r15
     2ac:	0f 93       	push	r16
     2ae:	1f 93       	push	r17
     2b0:	cf 93       	push	r28
     2b2:	df 93       	push	r29
     2b4:	8c 01       	movw	r16, r24
     2b6:	eb 01       	movw	r28, r22
     2b8:	e1 2c       	mov	r14, r1
     2ba:	f1 2c       	mov	r15, r1
     2bc:	0b c0       	rjmp	.+22     	; 0x2d4 <LCD_Write2Lines+0x2c>
     2be:	61 e0       	ldi	r22, 0x01	; 1
     2c0:	d6 df       	rcall	.-84     	; 0x26e <LCD_4Bit>
     2c2:	0f 5f       	subi	r16, 0xFF	; 255
     2c4:	1f 4f       	sbci	r17, 0xFF	; 255
     2c6:	8f ef       	ldi	r24, 0xFF	; 255
     2c8:	e8 1a       	sub	r14, r24
     2ca:	f8 0a       	sbc	r15, r24
     2cc:	e8 e2       	ldi	r30, 0x28	; 40
     2ce:	ee 16       	cp	r14, r30
     2d0:	f1 04       	cpc	r15, r1
     2d2:	31 f0       	breq	.+12     	; 0x2e0 <LCD_Write2Lines+0x38>
     2d4:	f8 01       	movw	r30, r16
     2d6:	80 81       	ld	r24, Z
     2d8:	81 11       	cpse	r24, r1
     2da:	f1 cf       	rjmp	.-30     	; 0x2be <LCD_Write2Lines+0x16>
     2dc:	f1 2c       	mov	r15, r1
     2de:	03 c0       	rjmp	.+6      	; 0x2e6 <LCD_Write2Lines+0x3e>
     2e0:	68 94       	set
     2e2:	ff 24       	eor	r15, r15
     2e4:	f1 f8       	bld	r15, 1
     2e6:	60 e0       	ldi	r22, 0x00	; 0
     2e8:	80 ec       	ldi	r24, 0xC0	; 192
     2ea:	c1 df       	rcall	.-126    	; 0x26e <LCD_4Bit>
     2ec:	00 e0       	ldi	r16, 0x00	; 0
     2ee:	10 e0       	ldi	r17, 0x00	; 0
     2f0:	08 c0       	rjmp	.+16     	; 0x302 <LCD_Write2Lines+0x5a>
     2f2:	61 e0       	ldi	r22, 0x01	; 1
     2f4:	bc df       	rcall	.-136    	; 0x26e <LCD_4Bit>
     2f6:	21 96       	adiw	r28, 0x01	; 1
     2f8:	0f 5f       	subi	r16, 0xFF	; 255
     2fa:	1f 4f       	sbci	r17, 0xFF	; 255
     2fc:	08 32       	cpi	r16, 0x28	; 40
     2fe:	11 05       	cpc	r17, r1
     300:	21 f0       	breq	.+8      	; 0x30a <LCD_Write2Lines+0x62>
     302:	88 81       	ld	r24, Y
     304:	81 11       	cpse	r24, r1
     306:	f5 cf       	rjmp	.-22     	; 0x2f2 <LCD_Write2Lines+0x4a>
     308:	03 c0       	rjmp	.+6      	; 0x310 <LCD_Write2Lines+0x68>
     30a:	68 94       	set
     30c:	ff 24       	eor	r15, r15
     30e:	f1 f8       	bld	r15, 1
     310:	8f 2d       	mov	r24, r15
     312:	df 91       	pop	r29
     314:	cf 91       	pop	r28
     316:	1f 91       	pop	r17
     318:	0f 91       	pop	r16
     31a:	ff 90       	pop	r15
     31c:	ef 90       	pop	r14
     31e:	08 95       	ret

00000320 <LCD_UpdateData>:
     320:	0f 93       	push	r16
     322:	1f 93       	push	r17
     324:	cf 93       	push	r28
     326:	df 93       	push	r29
     328:	80 91 15 08 	lds	r24, 0x0815	; 0x800815 <ErrorActive>
     32c:	81 11       	cpse	r24, r1
     32e:	28 c0       	rjmp	.+80     	; 0x380 <LCD_UpdateData+0x60>
     330:	20 91 0f 08 	lds	r18, 0x080F	; 0x80080f <CurrentLine>
     334:	80 91 14 08 	lds	r24, 0x0814	; 0x800814 <LineCount>
     338:	28 17       	cp	r18, r24
     33a:	20 f5       	brcc	.+72     	; 0x384 <LCD_UpdateData+0x64>
     33c:	00 91 12 08 	lds	r16, 0x0812	; 0x800812 <LineList>
     340:	10 91 13 08 	lds	r17, 0x0813	; 0x800813 <LineList+0x1>
     344:	30 e0       	ldi	r19, 0x00	; 0
     346:	40 91 0e 08 	lds	r20, 0x080E	; 0x80080e <LineLength>
     34a:	50 e0       	ldi	r21, 0x00	; 0
     34c:	24 9f       	mul	r18, r20
     34e:	e0 01       	movw	r28, r0
     350:	25 9f       	mul	r18, r21
     352:	d0 0d       	add	r29, r0
     354:	34 9f       	mul	r19, r20
     356:	d0 0d       	add	r29, r0
     358:	11 24       	eor	r1, r1
     35a:	c0 0f       	add	r28, r16
     35c:	d1 1f       	adc	r29, r17
     35e:	2f 5f       	subi	r18, 0xFF	; 255
     360:	3f 4f       	sbci	r19, 0xFF	; 255
     362:	42 9f       	mul	r20, r18
     364:	c0 01       	movw	r24, r0
     366:	43 9f       	mul	r20, r19
     368:	90 0d       	add	r25, r0
     36a:	52 9f       	mul	r21, r18
     36c:	90 0d       	add	r25, r0
     36e:	11 24       	eor	r1, r1
     370:	08 0f       	add	r16, r24
     372:	19 1f       	adc	r17, r25
     374:	8e df       	rcall	.-228    	; 0x292 <LCD_Clear>
     376:	b8 01       	movw	r22, r16
     378:	ce 01       	movw	r24, r28
     37a:	96 df       	rcall	.-212    	; 0x2a8 <LCD_Write2Lines>
     37c:	80 e0       	ldi	r24, 0x00	; 0
     37e:	03 c0       	rjmp	.+6      	; 0x386 <LCD_UpdateData+0x66>
     380:	80 e0       	ldi	r24, 0x00	; 0
     382:	01 c0       	rjmp	.+2      	; 0x386 <LCD_UpdateData+0x66>
     384:	83 e0       	ldi	r24, 0x03	; 3
     386:	df 91       	pop	r29
     388:	cf 91       	pop	r28
     38a:	1f 91       	pop	r17
     38c:	0f 91       	pop	r16
     38e:	08 95       	ret

00000390 <LCD_MoveUp>:
     390:	80 91 15 08 	lds	r24, 0x0815	; 0x800815 <ErrorActive>
     394:	88 23       	and	r24, r24
     396:	21 f0       	breq	.+8      	; 0x3a0 <LCD_MoveUp+0x10>
     398:	10 92 15 08 	sts	0x0815, r1	; 0x800815 <ErrorActive>
     39c:	c1 df       	rcall	.-126    	; 0x320 <LCD_UpdateData>
     39e:	08 c0       	rjmp	.+16     	; 0x3b0 <LCD_MoveUp+0x20>
     3a0:	80 91 0f 08 	lds	r24, 0x080F	; 0x80080f <CurrentLine>
     3a4:	88 23       	and	r24, r24
     3a6:	19 f0       	breq	.+6      	; 0x3ae <LCD_MoveUp+0x1e>
     3a8:	81 50       	subi	r24, 0x01	; 1
     3aa:	80 93 0f 08 	sts	0x080F, r24	; 0x80080f <CurrentLine>
     3ae:	b8 df       	rcall	.-144    	; 0x320 <LCD_UpdateData>
     3b0:	80 e0       	ldi	r24, 0x00	; 0
     3b2:	08 95       	ret

000003b4 <LCD_MoveDown>:
     3b4:	80 91 15 08 	lds	r24, 0x0815	; 0x800815 <ErrorActive>
     3b8:	88 23       	and	r24, r24
     3ba:	21 f0       	breq	.+8      	; 0x3c4 <LCD_MoveDown+0x10>
     3bc:	10 92 15 08 	sts	0x0815, r1	; 0x800815 <ErrorActive>
     3c0:	af df       	rcall	.-162    	; 0x320 <LCD_UpdateData>
     3c2:	0f c0       	rjmp	.+30     	; 0x3e2 <LCD_MoveDown+0x2e>
     3c4:	20 91 0f 08 	lds	r18, 0x080F	; 0x80080f <CurrentLine>
     3c8:	42 2f       	mov	r20, r18
     3ca:	50 e0       	ldi	r21, 0x00	; 0
     3cc:	80 91 14 08 	lds	r24, 0x0814	; 0x800814 <LineCount>
     3d0:	90 e0       	ldi	r25, 0x00	; 0
     3d2:	02 97       	sbiw	r24, 0x02	; 2
     3d4:	48 17       	cp	r20, r24
     3d6:	59 07       	cpc	r21, r25
     3d8:	1c f4       	brge	.+6      	; 0x3e0 <LCD_MoveDown+0x2c>
     3da:	2f 5f       	subi	r18, 0xFF	; 255
     3dc:	20 93 0f 08 	sts	0x080F, r18	; 0x80080f <CurrentLine>
     3e0:	9f df       	rcall	.-194    	; 0x320 <LCD_UpdateData>
     3e2:	80 e0       	ldi	r24, 0x00	; 0
     3e4:	08 95       	ret

000003e6 <calculate_size_of_memory>:
	}
	return apps_registered;
 }

 //function that calculates memory requirement of each application
 uint8_t calculate_size_of_memory(uint8_t array_of_variables[], uint8_t number_of_variables){
     3e6:	ac 01       	movw	r20, r24
	uint8_t size_of_memory = 0;
	uint8_t n = number_of_variables;
	for (uint8_t i=0;i<n;i++)
     3e8:	90 e0       	ldi	r25, 0x00	; 0
	return apps_registered;
 }

 //function that calculates memory requirement of each application
 uint8_t calculate_size_of_memory(uint8_t array_of_variables[], uint8_t number_of_variables){
	uint8_t size_of_memory = 0;
     3ea:	80 e0       	ldi	r24, 0x00	; 0
	uint8_t n = number_of_variables;
	for (uint8_t i=0;i<n;i++)
     3ec:	06 c0       	rjmp	.+12     	; 0x3fa <calculate_size_of_memory+0x14>
	{
		size_of_memory = size_of_memory+array_of_variables[i];
     3ee:	fa 01       	movw	r30, r20
     3f0:	e9 0f       	add	r30, r25
     3f2:	f1 1d       	adc	r31, r1
     3f4:	20 81       	ld	r18, Z
     3f6:	82 0f       	add	r24, r18

 //function that calculates memory requirement of each application
 uint8_t calculate_size_of_memory(uint8_t array_of_variables[], uint8_t number_of_variables){
	uint8_t size_of_memory = 0;
	uint8_t n = number_of_variables;
	for (uint8_t i=0;i<n;i++)
     3f8:	9f 5f       	subi	r25, 0xFF	; 255
     3fa:	96 17       	cp	r25, r22
     3fc:	c0 f3       	brcs	.-16     	; 0x3ee <calculate_size_of_memory+0x8>
	{
		size_of_memory = size_of_memory+array_of_variables[i];
	}
	return size_of_memory;
 }
     3fe:	08 95       	ret

00000400 <calculate_apps_memory_for_variables>:

 //function that calculates the memory address of each variable from each application
 void calculate_apps_memory_for_variables(uint8_t array_of_variables[]){
     400:	cf 93       	push	r28
     402:	df 93       	push	r29
     404:	ec 01       	movw	r28, r24
	uart_put("Stelle der Variablen berechnen");
     406:	8e eb       	ldi	r24, 0xBE	; 190
     408:	91 e0       	ldi	r25, 0x01	; 1
     40a:	9f 93       	push	r25
     40c:	8f 93       	push	r24
     40e:	0e 94 74 1f 	call	0x3ee8	; 0x3ee8 <uart_put>
		uart_puts("\r\n");
     412:	8a e1       	ldi	r24, 0x1A	; 26
     414:	92 e0       	ldi	r25, 0x02	; 2
     416:	0e 94 4c 1f 	call	0x3e98	; 0x3e98 <uart_puts>
	for (uint8_t i=0; array_of_variables[i]!=0; i++)
     41a:	0f 90       	pop	r0
     41c:	0f 90       	pop	r0
     41e:	40 e0       	ldi	r20, 0x00	; 0
     420:	1b c0       	rjmp	.+54     	; 0x458 <calculate_apps_memory_for_variables+0x58>
	{
		//uart_puts("Variable: ");
		//uart_putn(array_of_variables[i]);
		//uart_puts("\r\n");

		array_apps_with_lenght[apps_registered][i] = array_of_variables[i];
     422:	90 91 1b 05 	lds	r25, 0x051B	; 0x80051b <apps_registered>
     426:	24 2f       	mov	r18, r20
     428:	30 e0       	ldi	r19, 0x00	; 0
     42a:	60 e1       	ldi	r22, 0x10	; 16
     42c:	96 9f       	mul	r25, r22
     42e:	c0 01       	movw	r24, r0
     430:	11 24       	eor	r1, r1
     432:	fc 01       	movw	r30, r24
     434:	e8 5e       	subi	r30, 0xE8	; 232
     436:	f7 4f       	sbci	r31, 0xF7	; 247
     438:	e2 0f       	add	r30, r18
     43a:	f3 1f       	adc	r31, r19
     43c:	50 83       	st	Z, r21
		//uart_puts("Variable in Global: ");
		//uart_putn(array_apps_with_lenght[apps_registered][i]);
		//uart_puts("\r\n");

		array_apps_with_addresses[apps_registered][i] = apps_register_current_location_in_memory_for_next_variable;
     43e:	50 91 0b 01 	lds	r21, 0x010B	; 0x80010b <apps_register_current_location_in_memory_for_next_variable>
     442:	8a 53       	subi	r24, 0x3A	; 58
     444:	97 4f       	sbci	r25, 0xF7	; 247
     446:	fc 01       	movw	r30, r24
     448:	e2 0f       	add	r30, r18
     44a:	f3 1f       	adc	r31, r19
     44c:	50 83       	st	Z, r21

		//uart_puts("Stelle im Speicher: ");
		//uart_putn(array_apps_with_addresses[apps_registered][i]);
		//uart_puts("\r\n");

		apps_register_current_location_in_memory_for_next_variable = apps_register_current_location_in_memory_for_next_variable+array_of_variables[i];
     44e:	8c 91       	ld	r24, X
     450:	85 0f       	add	r24, r21
     452:	80 93 0b 01 	sts	0x010B, r24	; 0x80010b <apps_register_current_location_in_memory_for_next_variable>

 //function that calculates the memory address of each variable from each application
 void calculate_apps_memory_for_variables(uint8_t array_of_variables[]){
	uart_put("Stelle der Variablen berechnen");
		uart_puts("\r\n");
	for (uint8_t i=0; array_of_variables[i]!=0; i++)
     456:	4f 5f       	subi	r20, 0xFF	; 255
     458:	de 01       	movw	r26, r28
     45a:	a4 0f       	add	r26, r20
     45c:	b1 1d       	adc	r27, r1
     45e:	5c 91       	ld	r21, X
     460:	51 11       	cpse	r21, r1
     462:	df cf       	rjmp	.-66     	; 0x422 <calculate_apps_memory_for_variables+0x22>
		//uart_puts("Naechste Variable: ");
		//uart_putn(apps_register_current_location_in_memory_for_next_variable);
		//uart_puts("\r\n");
	}

	apps_register_current_location_in_memory_for_next_variable++;
     464:	80 91 0b 01 	lds	r24, 0x010B	; 0x80010b <apps_register_current_location_in_memory_for_next_variable>
     468:	8f 5f       	subi	r24, 0xFF	; 255
     46a:	80 93 0b 01 	sts	0x010B, r24	; 0x80010b <apps_register_current_location_in_memory_for_next_variable>
 }
     46e:	df 91       	pop	r29
     470:	cf 91       	pop	r28
     472:	08 95       	ret

00000474 <eeprom_write>:
	}
 }

//simple write function using avr
void eeprom_write(uint8_t address, uint8_t *value) {
	eeprom_update_byte(address, value);
     474:	90 e0       	ldi	r25, 0x00	; 0
     476:	0c 94 4c 26 	jmp	0x4c98	; 0x4c98 <eeprom_update_byte>
     47a:	08 95       	ret

0000047c <eeprom_write_array>:
}

//function for writing an array
void eeprom_write_array(uint8_t address, uint8_t value[], uint8_t bytes) {
     47c:	ff 92       	push	r15
     47e:	0f 93       	push	r16
     480:	1f 93       	push	r17
     482:	cf 93       	push	r28
     484:	df 93       	push	r29
     486:	f8 2e       	mov	r15, r24
     488:	8b 01       	movw	r16, r22
     48a:	d4 2f       	mov	r29, r20
	for(uint8_t i = 0; i < bytes; i++){
     48c:	c0 e0       	ldi	r28, 0x00	; 0
     48e:	0b c0       	rjmp	.+22     	; 0x4a6 <eeprom_write_array+0x2a>
		eeprom_update_byte(address+i, value[i]);
     490:	8c 2f       	mov	r24, r28
     492:	90 e0       	ldi	r25, 0x00	; 0
     494:	f8 01       	movw	r30, r16
     496:	e8 0f       	add	r30, r24
     498:	f9 1f       	adc	r31, r25
     49a:	60 81       	ld	r22, Z
     49c:	8f 0d       	add	r24, r15
     49e:	91 1d       	adc	r25, r1
     4a0:	0e 94 4c 26 	call	0x4c98	; 0x4c98 <eeprom_update_byte>
	eeprom_update_byte(address, value);
}

//function for writing an array
void eeprom_write_array(uint8_t address, uint8_t value[], uint8_t bytes) {
	for(uint8_t i = 0; i < bytes; i++){
     4a4:	cf 5f       	subi	r28, 0xFF	; 255
     4a6:	cd 17       	cp	r28, r29
     4a8:	98 f3       	brcs	.-26     	; 0x490 <eeprom_write_array+0x14>
		eeprom_update_byte(address+i, value[i]);
	}
}
     4aa:	df 91       	pop	r29
     4ac:	cf 91       	pop	r28
     4ae:	1f 91       	pop	r17
     4b0:	0f 91       	pop	r16
     4b2:	ff 90       	pop	r15
     4b4:	08 95       	ret

000004b6 <eeprom_driver_write>:

//function to use in an application to write a variable
void eeprom_driver_write(uint8_t app_number, uint8_t value[], uint8_t number_of_variable){
	number_of_variable = number_of_variable-1;
     4b6:	41 50       	subi	r20, 0x01	; 1
	uint8_t address = array_apps_with_addresses[app_number][number_of_variable];
     4b8:	50 e0       	ldi	r21, 0x00	; 0
     4ba:	20 e1       	ldi	r18, 0x10	; 16
     4bc:	82 9f       	mul	r24, r18
     4be:	c0 01       	movw	r24, r0
     4c0:	11 24       	eor	r1, r1
     4c2:	fc 01       	movw	r30, r24
     4c4:	ea 53       	subi	r30, 0x3A	; 58
     4c6:	f7 4f       	sbci	r31, 0xF7	; 247
     4c8:	e4 0f       	add	r30, r20
     4ca:	f5 1f       	adc	r31, r21
	eeprom_write_array(address, value, array_apps_with_lenght[app_number][number_of_variable]);
     4cc:	88 5e       	subi	r24, 0xE8	; 232
     4ce:	97 4f       	sbci	r25, 0xF7	; 247
     4d0:	dc 01       	movw	r26, r24
     4d2:	a4 0f       	add	r26, r20
     4d4:	b5 1f       	adc	r27, r21
     4d6:	4c 91       	ld	r20, X
     4d8:	80 81       	ld	r24, Z
     4da:	d0 cf       	rjmp	.-96     	; 0x47c <eeprom_write_array>
     4dc:	08 95       	ret

000004de <eeprom_read>:
}

//simple read function using avr
uint8_t eeprom_read(uint8_t address){
	return eeprom_read_byte((const uint8_t*) address);
     4de:	90 e0       	ldi	r25, 0x00	; 0
     4e0:	0c 94 44 26 	jmp	0x4c88	; 0x4c88 <eeprom_read_byte>
}
     4e4:	08 95       	ret

000004e6 <eeprom_find_apps>:

 }
uint8_t nextapp = 2;

 //core function that scans eeeprom at startup for old applications
 void eeprom_find_apps(){
     4e6:	cf 93       	push	r28
     4e8:	df 93       	push	r29
	//searching at eeprom location two for the first application
	
	uint8_t nextapp_value;
	
	//if location two is empty no old application in memory else searching for next
	nextapp_value = eeprom_read(nextapp);
     4ea:	d0 91 0a 01 	lds	r29, 0x010A	; 0x80010a <nextapp>
     4ee:	8d 2f       	mov	r24, r29
     4f0:	f6 df       	rcall	.-20     	; 0x4de <eeprom_read>
     4f2:	c8 2f       	mov	r28, r24
	
	if (nextapp_value == 255)
     4f4:	8f 3f       	cpi	r24, 0xFF	; 255
     4f6:	29 f4       	brne	.+10     	; 0x502 <eeprom_find_apps+0x1c>
	{
		uart_puts("Keine Applications registriert\r\n");
     4f8:	8d ed       	ldi	r24, 0xDD	; 221
     4fa:	91 e0       	ldi	r25, 0x01	; 1
     4fc:	0e 94 4c 1f 	call	0x3e98	; 0x3e98 <uart_puts>
     500:	3f c0       	rjmp	.+126    	; 0x580 <eeprom_find_apps+0x9a>
	} 
	else
	{
		apps_address[apps_found]=nextapp;
     502:	80 91 1a 05 	lds	r24, 0x051A	; 0x80051a <__data_end>
     506:	28 2f       	mov	r18, r24
     508:	30 e0       	ldi	r19, 0x00	; 0
     50a:	f9 01       	movw	r30, r18
     50c:	e4 54       	subi	r30, 0x44	; 68
     50e:	f7 4f       	sbci	r31, 0xF7	; 247
     510:	d0 83       	st	Z, r29
		apps_in_memory_space[apps_found]=nextapp_value;
     512:	f9 01       	movw	r30, r18
     514:	ea 59       	subi	r30, 0x9A	; 154
     516:	f6 4f       	sbci	r31, 0xF6	; 246
     518:	c0 83       	st	Z, r28
		apps_found++;
     51a:	8f 5f       	subi	r24, 0xFF	; 255
     51c:	80 93 1a 05 	sts	0x051A, r24	; 0x80051a <__data_end>
		uart_puts("App gefunden !\r\n");
     520:	8c e0       	ldi	r24, 0x0C	; 12
     522:	92 e0       	ldi	r25, 0x02	; 2
     524:	0e 94 4c 1f 	call	0x3e98	; 0x3e98 <uart_puts>

		nextapp = nextapp + nextapp_value +1;
     528:	80 91 0a 01 	lds	r24, 0x010A	; 0x80010a <nextapp>
     52c:	8c 0f       	add	r24, r28
     52e:	8f 5f       	subi	r24, 0xFF	; 255
     530:	80 93 0a 01 	sts	0x010A, r24	; 0x80010a <nextapp>
		nextapp_value = eeprom_read(nextapp);
     534:	d4 df       	rcall	.-88     	; 0x4de <eeprom_read>
     536:	c8 2f       	mov	r28, r24

		while (nextapp_value != 255)
     538:	1d c0       	rjmp	.+58     	; 0x574 <eeprom_find_apps+0x8e>
		{
			
			apps_address[apps_found]=nextapp;
     53a:	80 91 1a 05 	lds	r24, 0x051A	; 0x80051a <__data_end>
     53e:	28 2f       	mov	r18, r24
     540:	30 e0       	ldi	r19, 0x00	; 0
     542:	f9 01       	movw	r30, r18
     544:	e4 54       	subi	r30, 0x44	; 68
     546:	f7 4f       	sbci	r31, 0xF7	; 247
     548:	90 91 0a 01 	lds	r25, 0x010A	; 0x80010a <nextapp>
     54c:	90 83       	st	Z, r25
			apps_in_memory_space[apps_found]=nextapp_value;
     54e:	f9 01       	movw	r30, r18
     550:	ea 59       	subi	r30, 0x9A	; 154
     552:	f6 4f       	sbci	r31, 0xF6	; 246
     554:	c0 83       	st	Z, r28
			apps_found++;
     556:	8f 5f       	subi	r24, 0xFF	; 255
     558:	80 93 1a 05 	sts	0x051A, r24	; 0x80051a <__data_end>
			uart_puts("App gefunden !\r\n");
     55c:	8c e0       	ldi	r24, 0x0C	; 12
     55e:	92 e0       	ldi	r25, 0x02	; 2
     560:	0e 94 4c 1f 	call	0x3e98	; 0x3e98 <uart_puts>

			nextapp = nextapp + nextapp_value +1;
     564:	80 91 0a 01 	lds	r24, 0x010A	; 0x80010a <nextapp>
     568:	8c 0f       	add	r24, r28
     56a:	8f 5f       	subi	r24, 0xFF	; 255
     56c:	80 93 0a 01 	sts	0x010A, r24	; 0x80010a <nextapp>
			nextapp_value = eeprom_read(nextapp);
     570:	b6 df       	rcall	.-148    	; 0x4de <eeprom_read>
     572:	c8 2f       	mov	r28, r24
		uart_puts("App gefunden !\r\n");

		nextapp = nextapp + nextapp_value +1;
		nextapp_value = eeprom_read(nextapp);

		while (nextapp_value != 255)
     574:	cf 3f       	cpi	r28, 0xFF	; 255
     576:	09 f7       	brne	.-62     	; 0x53a <eeprom_find_apps+0x54>

			nextapp = nextapp + nextapp_value +1;
			nextapp_value = eeprom_read(nextapp);

		}
		uart_puts("Keine weitere App gefunden !\r\n");
     578:	8e ef       	ldi	r24, 0xFE	; 254
     57a:	91 e0       	ldi	r25, 0x01	; 1
     57c:	0e 94 4c 1f 	call	0x3e98	; 0x3e98 <uart_puts>
	}

 }
     580:	df 91       	pop	r29
     582:	cf 91       	pop	r28
     584:	08 95       	ret

00000586 <eeprom_check_identifier>:

	apps_register_current_location_in_memory_for_next_variable++;
 }
 
 //function that checks the eeprom identifiers
 bool eeprom_check_identifier(){
     586:	cf 93       	push	r28
	uint8_t id1 = eeprom_read(0);
     588:	80 e0       	ldi	r24, 0x00	; 0
     58a:	a9 df       	rcall	.-174    	; 0x4de <eeprom_read>
     58c:	c8 2f       	mov	r28, r24
	uint8_t id2 = eeprom_read(1);
     58e:	81 e0       	ldi	r24, 0x01	; 1
     590:	a6 df       	rcall	.-180    	; 0x4de <eeprom_read>
	if (id1 == EEPROM_IDENTIFIER && id2 == EEPROM_IDENTIFIER_2)
     592:	ca 37       	cpi	r28, 0x7A	; 122
     594:	21 f4       	brne	.+8      	; 0x59e <eeprom_check_identifier+0x18>
     596:	8b 37       	cpi	r24, 0x7B	; 123
     598:	21 f0       	breq	.+8      	; 0x5a2 <eeprom_check_identifier+0x1c>
	{
		return true;
	} 
	else
	{
		return false;
     59a:	80 e0       	ldi	r24, 0x00	; 0
     59c:	03 c0       	rjmp	.+6      	; 0x5a4 <eeprom_check_identifier+0x1e>
     59e:	80 e0       	ldi	r24, 0x00	; 0
     5a0:	01 c0       	rjmp	.+2      	; 0x5a4 <eeprom_check_identifier+0x1e>
 bool eeprom_check_identifier(){
	uint8_t id1 = eeprom_read(0);
	uint8_t id2 = eeprom_read(1);
	if (id1 == EEPROM_IDENTIFIER && id2 == EEPROM_IDENTIFIER_2)
	{
		return true;
     5a2:	81 e0       	ldi	r24, 0x01	; 1
	} 
	else
	{
		return false;
	}
 }
     5a4:	cf 91       	pop	r28
     5a6:	08 95       	ret

000005a8 <eeprom_driver_read_uint8_t>:
}

//function for reading one byte variables
uint8_t eeprom_driver_read_uint8_t(uint8_t app_number, uint8_t number_of_variable){
	uint8_t temp;
	number_of_variable = number_of_variable-1;
     5a8:	61 50       	subi	r22, 0x01	; 1
	temp = eeprom_read_byte((const uint8_t*) array_apps_with_addresses[app_number][number_of_variable]);
     5aa:	20 e1       	ldi	r18, 0x10	; 16
     5ac:	82 9f       	mul	r24, r18
     5ae:	c0 01       	movw	r24, r0
     5b0:	11 24       	eor	r1, r1
     5b2:	fc 01       	movw	r30, r24
     5b4:	ea 53       	subi	r30, 0x3A	; 58
     5b6:	f7 4f       	sbci	r31, 0xF7	; 247
     5b8:	e6 0f       	add	r30, r22
     5ba:	f1 1d       	adc	r31, r1
     5bc:	80 81       	ld	r24, Z
     5be:	90 e0       	ldi	r25, 0x00	; 0
     5c0:	0c 94 44 26 	jmp	0x4c88	; 0x4c88 <eeprom_read_byte>
	return temp;
}
     5c4:	08 95       	ret

000005c6 <eeprom_driver_read>:

//function to use in an application to read a variable that is longer than one byte
void eeprom_driver_read(uint8_t* array_data, uint8_t app_number, uint8_t number_of_variable){
     5c6:	df 92       	push	r13
     5c8:	ef 92       	push	r14
     5ca:	ff 92       	push	r15
     5cc:	0f 93       	push	r16
     5ce:	1f 93       	push	r17
     5d0:	cf 93       	push	r28
     5d2:	df 93       	push	r29
     5d4:	ec 01       	movw	r28, r24
     5d6:	d6 2e       	mov	r13, r22
	//Damit Variablen 1-.... Variablen -1
	number_of_variable = number_of_variable-1;
     5d8:	0f ef       	ldi	r16, 0xFF	; 255
     5da:	04 0f       	add	r16, r20

	for(uint8_t i = 0; i < array_apps_with_lenght[app_number][number_of_variable]; i++){
     5dc:	10 e0       	ldi	r17, 0x00	; 0
     5de:	18 c0       	rjmp	.+48     	; 0x610 <eeprom_driver_read+0x4a>
		array_data[i] = eeprom_read_byte((const uint8_t*) array_apps_with_addresses[app_number][number_of_variable]+i);
     5e0:	81 2f       	mov	r24, r17
     5e2:	90 e0       	ldi	r25, 0x00	; 0
     5e4:	7e 01       	movw	r14, r28
     5e6:	e8 0e       	add	r14, r24
     5e8:	f9 1e       	adc	r15, r25
     5ea:	22 95       	swap	r18
     5ec:	32 95       	swap	r19
     5ee:	30 7f       	andi	r19, 0xF0	; 240
     5f0:	32 27       	eor	r19, r18
     5f2:	20 7f       	andi	r18, 0xF0	; 240
     5f4:	32 27       	eor	r19, r18
     5f6:	2a 53       	subi	r18, 0x3A	; 58
     5f8:	37 4f       	sbci	r19, 0xF7	; 247
     5fa:	f9 01       	movw	r30, r18
     5fc:	e4 0f       	add	r30, r20
     5fe:	f5 1f       	adc	r31, r21
     600:	20 81       	ld	r18, Z
     602:	82 0f       	add	r24, r18
     604:	91 1d       	adc	r25, r1
     606:	0e 94 44 26 	call	0x4c88	; 0x4c88 <eeprom_read_byte>
     60a:	f7 01       	movw	r30, r14
     60c:	80 83       	st	Z, r24
//function to use in an application to read a variable that is longer than one byte
void eeprom_driver_read(uint8_t* array_data, uint8_t app_number, uint8_t number_of_variable){
	//Damit Variablen 1-.... Variablen -1
	number_of_variable = number_of_variable-1;

	for(uint8_t i = 0; i < array_apps_with_lenght[app_number][number_of_variable]; i++){
     60e:	1f 5f       	subi	r17, 0xFF	; 255
     610:	2d 2d       	mov	r18, r13
     612:	30 e0       	ldi	r19, 0x00	; 0
     614:	40 2f       	mov	r20, r16
     616:	50 e0       	ldi	r21, 0x00	; 0
     618:	f9 01       	movw	r30, r18
     61a:	e2 95       	swap	r30
     61c:	f2 95       	swap	r31
     61e:	f0 7f       	andi	r31, 0xF0	; 240
     620:	fe 27       	eor	r31, r30
     622:	e0 7f       	andi	r30, 0xF0	; 240
     624:	fe 27       	eor	r31, r30
     626:	e8 5e       	subi	r30, 0xE8	; 232
     628:	f7 4f       	sbci	r31, 0xF7	; 247
     62a:	e4 0f       	add	r30, r20
     62c:	f5 1f       	adc	r31, r21
     62e:	80 81       	ld	r24, Z
     630:	18 17       	cp	r17, r24
     632:	b0 f2       	brcs	.-84     	; 0x5e0 <eeprom_driver_read+0x1a>
	uart_put("\r\n");
	uart_putc("Adresse:");
	uart_putn(array_apps_with_addresses[app_number][number_of_variable]);
	uart_put("\r\n");
	**/
}
     634:	df 91       	pop	r29
     636:	cf 91       	pop	r28
     638:	1f 91       	pop	r17
     63a:	0f 91       	pop	r16
     63c:	ff 90       	pop	r15
     63e:	ef 90       	pop	r14
     640:	df 90       	pop	r13
     642:	08 95       	ret

00000644 <deleteall>:

//delete functions
 void deleteall() {
     644:	cf 93       	push	r28
     646:	df 93       	push	r29
	for(uint16_t i = 0; i < 4096; i++){
     648:	c0 e0       	ldi	r28, 0x00	; 0
     64a:	d0 e0       	ldi	r29, 0x00	; 0
     64c:	05 c0       	rjmp	.+10     	; 0x658 <deleteall+0x14>
		eeprom_update_byte(i, 255);
     64e:	6f ef       	ldi	r22, 0xFF	; 255
     650:	ce 01       	movw	r24, r28
     652:	0e 94 4c 26 	call	0x4c98	; 0x4c98 <eeprom_update_byte>
	**/
}

//delete functions
 void deleteall() {
	for(uint16_t i = 0; i < 4096; i++){
     656:	21 96       	adiw	r28, 0x01	; 1
     658:	c1 15       	cp	r28, r1
     65a:	80 e1       	ldi	r24, 0x10	; 16
     65c:	d8 07       	cpc	r29, r24
     65e:	b8 f3       	brcs	.-18     	; 0x64e <deleteall+0xa>
		eeprom_update_byte(i, 255);
	}
	uart_put("! EEPROM alles geloescht !\r\n");
     660:	8d e1       	ldi	r24, 0x1D	; 29
     662:	92 e0       	ldi	r25, 0x02	; 2
     664:	9f 93       	push	r25
     666:	8f 93       	push	r24
     668:	0e 94 74 1f 	call	0x3ee8	; 0x3ee8 <uart_put>
 }
     66c:	0f 90       	pop	r0
     66e:	0f 90       	pop	r0
     670:	df 91       	pop	r29
     672:	cf 91       	pop	r28
     674:	08 95       	ret

00000676 <eeprom_init>:
 uint8_t array_apps_with_addresses[MAX_APPS_POSSIBLE][16];
 uint8_t array_apps_with_lenght[MAX_APPS_POSSIBLE][16];


 eeprom_init(){
	if (eeprom_check_identifier() == false)
     676:	87 df       	rcall	.-242    	; 0x586 <eeprom_check_identifier>
     678:	81 11       	cpse	r24, r1
     67a:	0d c0       	rjmp	.+26     	; 0x696 <eeprom_init+0x20>
	{
		deleteall();
     67c:	e3 df       	rcall	.-58     	; 0x644 <deleteall>
     67e:	6a e7       	ldi	r22, 0x7A	; 122
		eeprom_write(0, EEPROM_IDENTIFIER);
     680:	70 e0       	ldi	r23, 0x00	; 0
     682:	80 e0       	ldi	r24, 0x00	; 0
     684:	f7 de       	rcall	.-530    	; 0x474 <eeprom_write>
     686:	6b e7       	ldi	r22, 0x7B	; 123
		eeprom_write(1, EEPROM_IDENTIFIER_2);
     688:	70 e0       	ldi	r23, 0x00	; 0
     68a:	81 e0       	ldi	r24, 0x01	; 1
     68c:	f3 de       	rcall	.-538    	; 0x474 <eeprom_write>
     68e:	88 e0       	ldi	r24, 0x08	; 8
		WDTCSR = (1 << WDE);
     690:	80 93 60 00 	sts	0x0060, r24	; 0x800060 <__TEXT_REGION_LENGTH__+0x7e0060>
     694:	08 95       	ret
	}
	else
	{
		eeprom_find_apps();
     696:	27 cf       	rjmp	.-434    	; 0x4e6 <eeprom_find_apps>
     698:	08 95       	ret

0000069a <deleteall_without_id>:
	}

 }
     69a:	cf 93       	push	r28
	for(uint16_t i = 0; i < 4096; i++){
		eeprom_update_byte(i, 255);
	}
	uart_put("! EEPROM alles geloescht !\r\n");
 }
 void deleteall_without_id() {
     69c:	df 93       	push	r29
	  for(uint16_t i = 2; i < 4096; i++){
     69e:	c2 e0       	ldi	r28, 0x02	; 2
     6a0:	d0 e0       	ldi	r29, 0x00	; 0
     6a2:	05 c0       	rjmp	.+10     	; 0x6ae <deleteall_without_id+0x14>
		  eeprom_update_byte(i, 255);
     6a4:	6f ef       	ldi	r22, 0xFF	; 255
     6a6:	ce 01       	movw	r24, r28
     6a8:	0e 94 4c 26 	call	0x4c98	; 0x4c98 <eeprom_update_byte>
		eeprom_update_byte(i, 255);
	}
	uart_put("! EEPROM alles geloescht !\r\n");
 }
 void deleteall_without_id() {
	  for(uint16_t i = 2; i < 4096; i++){
     6ac:	21 96       	adiw	r28, 0x01	; 1
     6ae:	c1 15       	cp	r28, r1
     6b0:	80 e1       	ldi	r24, 0x10	; 16
     6b2:	d8 07       	cpc	r29, r24
     6b4:	b8 f3       	brcs	.-18     	; 0x6a4 <deleteall_without_id+0xa>
		  eeprom_update_byte(i, 255);
	  }
	  uart_put("! EEPROM alles geloescht !\r\n");
     6b6:	8d e1       	ldi	r24, 0x1D	; 29
     6b8:	92 e0       	ldi	r25, 0x02	; 2
     6ba:	9f 93       	push	r25
     6bc:	8f 93       	push	r24
     6be:	0e 94 74 1f 	call	0x3ee8	; 0x3ee8 <uart_put>
  }
     6c2:	0f 90       	pop	r0
     6c4:	0f 90       	pop	r0
     6c6:	df 91       	pop	r29
     6c8:	cf 91       	pop	r28
     6ca:	08 95       	ret

000006cc <eeprom_register_app>:
   If you need more than 254 Bytes for your application use two storage areas.
   Simple split your variables and call this function twice.

                                                                        */
/************************************************************************/  
 uint8_t eeprom_register_app(uint8_t array_of_variables[], uint8_t number_of_variables){
     6cc:	1f 93       	push	r17
     6ce:	cf 93       	push	r28
     6d0:	df 93       	push	r29
     6d2:	ec 01       	movw	r28, r24
     6d4:	16 2f       	mov	r17, r22
	 
	uint8_t space_of_memory_for_app = 0;
	space_of_memory_for_app = calculate_size_of_memory(array_of_variables, number_of_variables);
     6d6:	87 de       	rcall	.-754    	; 0x3e6 <calculate_size_of_memory>
	
	
	if (apps_registered < apps_found)
     6d8:	90 91 1b 05 	lds	r25, 0x051B	; 0x80051b <apps_registered>
     6dc:	20 91 1a 05 	lds	r18, 0x051A	; 0x80051a <__data_end>
     6e0:	92 17       	cp	r25, r18
     6e2:	00 f5       	brcc	.+64     	; 0x724 <eeprom_register_app+0x58>
	{
		if (space_of_memory_for_app == apps_in_memory_space[apps_registered])
     6e4:	e9 2f       	mov	r30, r25
     6e6:	f0 e0       	ldi	r31, 0x00	; 0
     6e8:	ea 59       	subi	r30, 0x9A	; 154
     6ea:	f6 4f       	sbci	r31, 0xF6	; 246
     6ec:	20 81       	ld	r18, Z
     6ee:	82 13       	cpse	r24, r18
     6f0:	10 c0       	rjmp	.+32     	; 0x712 <eeprom_register_app+0x46>
		{
			apps_registered++;
     6f2:	9f 5f       	subi	r25, 0xFF	; 255
     6f4:	90 93 1b 05 	sts	0x051B, r25	; 0x80051b <apps_registered>
			apps_register_current_location_in_memory = apps_register_current_location_in_memory+space_of_memory_for_app+1;
     6f8:	90 91 0c 01 	lds	r25, 0x010C	; 0x80010c <apps_register_current_location_in_memory>
     6fc:	89 0f       	add	r24, r25
     6fe:	8f 5f       	subi	r24, 0xFF	; 255
     700:	80 93 0c 01 	sts	0x010C, r24	; 0x80010c <apps_register_current_location_in_memory>
			calculate_apps_memory_for_variables(array_of_variables);
     704:	ce 01       	movw	r24, r28
     706:	7c de       	rcall	.-776    	; 0x400 <calculate_apps_memory_for_variables>
			uart_puts("App Registirert die mit alter uebereinstimmt\r\n");
     708:	8a e3       	ldi	r24, 0x3A	; 58
     70a:	92 e0       	ldi	r25, 0x02	; 2
     70c:	0e 94 4c 1f 	call	0x3e98	; 0x3e98 <uart_puts>
     710:	30 c0       	rjmp	.+96     	; 0x772 <eeprom_register_app+0xa6>
		}
		else
		{
			uart_puts("App ist nicht die gleiche die an dieser Stelle im Speicher erwartet wurde.\r\n");
     712:	89 e6       	ldi	r24, 0x69	; 105
     714:	92 e0       	ldi	r25, 0x02	; 2
     716:	0e 94 4c 1f 	call	0x3e98	; 0x3e98 <uart_puts>
			deleteall_without_id();
     71a:	bf df       	rcall	.-130    	; 0x69a <deleteall_without_id>
			WDTCSR = (1 << WDE);
     71c:	88 e0       	ldi	r24, 0x08	; 8
     71e:	80 93 60 00 	sts	0x0060, r24	; 0x800060 <__TEXT_REGION_LENGTH__+0x7e0060>
     722:	27 c0       	rjmp	.+78     	; 0x772 <eeprom_register_app+0xa6>
		}
	} 
	else
	{
		//app is same as in memory
		apps_register_current_location_in_memory = apps_register_current_location_in_memory+space_of_memory_for_app+1;
     724:	20 91 0c 01 	lds	r18, 0x010C	; 0x80010c <apps_register_current_location_in_memory>
     728:	82 0f       	add	r24, r18
     72a:	8f 5f       	subi	r24, 0xFF	; 255
     72c:	80 93 0c 01 	sts	0x010C, r24	; 0x80010c <apps_register_current_location_in_memory>
		apps_registered++;
     730:	9f 5f       	subi	r25, 0xFF	; 255
     732:	90 93 1b 05 	sts	0x051B, r25	; 0x80051b <apps_registered>
		calculate_apps_memory_for_variables(array_of_variables);
     736:	ce 01       	movw	r24, r28
     738:	63 de       	rcall	.-826    	; 0x400 <calculate_apps_memory_for_variables>
		uart_puts("Neue App Registirert\r\n");
     73a:	86 eb       	ldi	r24, 0xB6	; 182
     73c:	92 e0       	ldi	r25, 0x02	; 2
     73e:	0e 94 4c 1f 	call	0x3e98	; 0x3e98 <uart_puts>
		
		//TEST
		uint8_t size_current_app = calculate_size_of_memory(array_of_variables, number_of_variables);
     742:	61 2f       	mov	r22, r17
     744:	ce 01       	movw	r24, r28
     746:	4f de       	rcall	.-866    	; 0x3e6 <calculate_size_of_memory>
     748:	c8 2f       	mov	r28, r24
		uart_put("TEST");
     74a:	8d ec       	ldi	r24, 0xCD	; 205
     74c:	92 e0       	ldi	r25, 0x02	; 2
     74e:	9f 93       	push	r25
     750:	8f 93       	push	r24
     752:	0e 94 74 1f 	call	0x3ee8	; 0x3ee8 <uart_put>
		uart_putn(size_current_app);
     756:	8c 2f       	mov	r24, r28
     758:	0e 94 58 1f 	call	0x3eb0	; 0x3eb0 <uart_putn>
		uart_putn(nextapp);
     75c:	80 91 0a 01 	lds	r24, 0x010A	; 0x80010a <nextapp>
     760:	0e 94 58 1f 	call	0x3eb0	; 0x3eb0 <uart_putn>
		eeprom_write(nextapp, size_current_app);
     764:	6c 2f       	mov	r22, r28
     766:	70 e0       	ldi	r23, 0x00	; 0
     768:	80 91 0a 01 	lds	r24, 0x010A	; 0x80010a <nextapp>
     76c:	83 de       	rcall	.-762    	; 0x474 <eeprom_write>
     76e:	0f 90       	pop	r0
     770:	0f 90       	pop	r0
		
	}
	return apps_registered;
 }
     772:	80 91 1b 05 	lds	r24, 0x051B	; 0x80051b <apps_registered>
     776:	df 91       	pop	r29
     778:	cf 91       	pop	r28
     77a:	1f 91       	pop	r17
     77c:	08 95       	ret

0000077e <Start_Reading>:
     77e:	80 91 72 09 	lds	r24, 0x0972	; 0x800972 <numberOfReadBytes>
     782:	80 93 75 09 	sts	0x0975, r24	; 0x800975 <I2C_msgSize>
     786:	80 91 1d 05 	lds	r24, 0x051D	; 0x80051d <Slave_Address>
     78a:	81 60       	ori	r24, 0x01	; 1
     78c:	80 93 1d 05 	sts	0x051D, r24	; 0x80051d <Slave_Address>
     790:	80 e0       	ldi	r24, 0x00	; 0
     792:	07 c0       	rjmp	.+14     	; 0x7a2 <Start_Reading+0x24>
     794:	e3 ec       	ldi	r30, 0xC3	; 195
     796:	f9 e0       	ldi	r31, 0x09	; 9
     798:	31 97       	sbiw	r30, 0x01	; 1
     79a:	f1 f7       	brne	.-4      	; 0x798 <Start_Reading+0x1a>
     79c:	00 c0       	rjmp	.+0      	; 0x79e <Start_Reading+0x20>
     79e:	00 00       	nop
     7a0:	8f 5f       	subi	r24, 0xFF	; 255
     7a2:	90 91 8b 09 	lds	r25, 0x098B	; 0x80098b <delay_time>
     7a6:	89 17       	cp	r24, r25
     7a8:	a8 f3       	brcs	.-22     	; 0x794 <Start_Reading+0x16>
     7aa:	85 ea       	ldi	r24, 0xA5	; 165
     7ac:	80 93 bc 00 	sts	0x00BC, r24	; 0x8000bc <__TEXT_REGION_LENGTH__+0x7e00bc>
     7b0:	08 95       	ret

000007b2 <__vector_26>:
     7b2:	1f 92       	push	r1
     7b4:	0f 92       	push	r0
     7b6:	0f b6       	in	r0, 0x3f	; 63
     7b8:	0f 92       	push	r0
     7ba:	11 24       	eor	r1, r1
     7bc:	0b b6       	in	r0, 0x3b	; 59
     7be:	0f 92       	push	r0
     7c0:	2f 93       	push	r18
     7c2:	3f 93       	push	r19
     7c4:	4f 93       	push	r20
     7c6:	5f 93       	push	r21
     7c8:	6f 93       	push	r22
     7ca:	7f 93       	push	r23
     7cc:	8f 93       	push	r24
     7ce:	9f 93       	push	r25
     7d0:	af 93       	push	r26
     7d2:	bf 93       	push	r27
     7d4:	ef 93       	push	r30
     7d6:	ff 93       	push	r31
     7d8:	e0 91 b9 00 	lds	r30, 0x00B9	; 0x8000b9 <__TEXT_REGION_LENGTH__+0x7e00b9>
     7dc:	8e 2f       	mov	r24, r30
     7de:	90 e0       	ldi	r25, 0x00	; 0
     7e0:	89 35       	cpi	r24, 0x59	; 89
     7e2:	91 05       	cpc	r25, r1
     7e4:	08 f0       	brcs	.+2      	; 0x7e8 <__vector_26+0x36>
     7e6:	78 c0       	rjmp	.+240    	; 0x8d8 <__vector_26+0x126>
     7e8:	fc 01       	movw	r30, r24
     7ea:	ea 5b       	subi	r30, 0xBA	; 186
     7ec:	ff 4f       	sbci	r31, 0xFF	; 255
     7ee:	0c 94 73 21 	jmp	0x42e6	; 0x42e6 <__tablejump2__>
     7f2:	10 92 8c 09 	sts	0x098C, r1	; 0x80098c <I2C_bufPtr>
     7f6:	80 91 1d 05 	lds	r24, 0x051D	; 0x80051d <Slave_Address>
     7fa:	80 93 bb 00 	sts	0x00BB, r24	; 0x8000bb <__TEXT_REGION_LENGTH__+0x7e00bb>
     7fe:	85 e8       	ldi	r24, 0x85	; 133
     800:	80 93 bc 00 	sts	0x00BC, r24	; 0x8000bc <__TEXT_REGION_LENGTH__+0x7e00bc>
     804:	74 c0       	rjmp	.+232    	; 0x8ee <__vector_26+0x13c>
     806:	90 91 8c 09 	lds	r25, 0x098C	; 0x80098c <I2C_bufPtr>
     80a:	80 91 75 09 	lds	r24, 0x0975	; 0x800975 <I2C_msgSize>
     80e:	98 17       	cp	r25, r24
     810:	80 f4       	brcc	.+32     	; 0x832 <__vector_26+0x80>
     812:	e0 91 8c 09 	lds	r30, 0x098C	; 0x80098c <I2C_bufPtr>
     816:	81 e0       	ldi	r24, 0x01	; 1
     818:	8e 0f       	add	r24, r30
     81a:	80 93 8c 09 	sts	0x098C, r24	; 0x80098c <I2C_bufPtr>
     81e:	f0 e0       	ldi	r31, 0x00	; 0
     820:	ea 58       	subi	r30, 0x8A	; 138
     822:	f6 4f       	sbci	r31, 0xF6	; 246
     824:	80 81       	ld	r24, Z
     826:	80 93 bb 00 	sts	0x00BB, r24	; 0x8000bb <__TEXT_REGION_LENGTH__+0x7e00bb>
     82a:	85 e8       	ldi	r24, 0x85	; 133
     82c:	80 93 bc 00 	sts	0x00BC, r24	; 0x8000bc <__TEXT_REGION_LENGTH__+0x7e00bc>
     830:	5e c0       	rjmp	.+188    	; 0x8ee <__vector_26+0x13c>
     832:	80 91 72 09 	lds	r24, 0x0972	; 0x800972 <numberOfReadBytes>
     836:	82 30       	cpi	r24, 0x02	; 2
     838:	28 f0       	brcs	.+10     	; 0x844 <__vector_26+0x92>
     83a:	84 e9       	ldi	r24, 0x94	; 148
     83c:	80 93 bc 00 	sts	0x00BC, r24	; 0x8000bc <__TEXT_REGION_LENGTH__+0x7e00bc>
     840:	9e df       	rcall	.-196    	; 0x77e <Start_Reading>
     842:	55 c0       	rjmp	.+170    	; 0x8ee <__vector_26+0x13c>
     844:	84 e9       	ldi	r24, 0x94	; 148
     846:	80 93 bc 00 	sts	0x00BC, r24	; 0x8000bc <__TEXT_REGION_LENGTH__+0x7e00bc>
     84a:	10 92 1c 05 	sts	0x051C, r1	; 0x80051c <transmit_in_progress>
     84e:	e0 91 73 09 	lds	r30, 0x0973	; 0x800973 <callback_R>
     852:	f0 91 74 09 	lds	r31, 0x0974	; 0x800974 <callback_R+0x1>
     856:	80 e0       	ldi	r24, 0x00	; 0
     858:	09 95       	icall
     85a:	49 c0       	rjmp	.+146    	; 0x8ee <__vector_26+0x13c>
     85c:	e0 91 8c 09 	lds	r30, 0x098C	; 0x80098c <I2C_bufPtr>
     860:	81 e0       	ldi	r24, 0x01	; 1
     862:	8e 0f       	add	r24, r30
     864:	80 93 8c 09 	sts	0x098C, r24	; 0x80098c <I2C_bufPtr>
     868:	f0 e0       	ldi	r31, 0x00	; 0
     86a:	80 91 bb 00 	lds	r24, 0x00BB	; 0x8000bb <__TEXT_REGION_LENGTH__+0x7e00bb>
     86e:	ea 58       	subi	r30, 0x8A	; 138
     870:	f6 4f       	sbci	r31, 0xF6	; 246
     872:	80 83       	st	Z, r24
     874:	20 91 8c 09 	lds	r18, 0x098C	; 0x80098c <I2C_bufPtr>
     878:	30 e0       	ldi	r19, 0x00	; 0
     87a:	80 91 75 09 	lds	r24, 0x0975	; 0x800975 <I2C_msgSize>
     87e:	90 e0       	ldi	r25, 0x00	; 0
     880:	01 97       	sbiw	r24, 0x01	; 1
     882:	28 17       	cp	r18, r24
     884:	39 07       	cpc	r19, r25
     886:	24 f4       	brge	.+8      	; 0x890 <__vector_26+0xde>
     888:	85 ec       	ldi	r24, 0xC5	; 197
     88a:	80 93 bc 00 	sts	0x00BC, r24	; 0x8000bc <__TEXT_REGION_LENGTH__+0x7e00bc>
     88e:	2f c0       	rjmp	.+94     	; 0x8ee <__vector_26+0x13c>
     890:	85 e8       	ldi	r24, 0x85	; 133
     892:	80 93 bc 00 	sts	0x00BC, r24	; 0x8000bc <__TEXT_REGION_LENGTH__+0x7e00bc>
     896:	2b c0       	rjmp	.+86     	; 0x8ee <__vector_26+0x13c>
     898:	e0 91 8c 09 	lds	r30, 0x098C	; 0x80098c <I2C_bufPtr>
     89c:	f0 e0       	ldi	r31, 0x00	; 0
     89e:	80 91 bb 00 	lds	r24, 0x00BB	; 0x8000bb <__TEXT_REGION_LENGTH__+0x7e00bb>
     8a2:	ea 58       	subi	r30, 0x8A	; 138
     8a4:	f6 4f       	sbci	r31, 0xF6	; 246
     8a6:	80 83       	st	Z, r24
     8a8:	84 e9       	ldi	r24, 0x94	; 148
     8aa:	80 93 bc 00 	sts	0x00BC, r24	; 0x8000bc <__TEXT_REGION_LENGTH__+0x7e00bc>
     8ae:	10 92 1c 05 	sts	0x051C, r1	; 0x80051c <transmit_in_progress>
     8b2:	e0 91 73 09 	lds	r30, 0x0973	; 0x800973 <callback_R>
     8b6:	f0 91 74 09 	lds	r31, 0x0974	; 0x800974 <callback_R+0x1>
     8ba:	80 e0       	ldi	r24, 0x00	; 0
     8bc:	09 95       	icall
     8be:	17 c0       	rjmp	.+46     	; 0x8ee <__vector_26+0x13c>
     8c0:	84 e9       	ldi	r24, 0x94	; 148
     8c2:	80 93 bc 00 	sts	0x00BC, r24	; 0x8000bc <__TEXT_REGION_LENGTH__+0x7e00bc>
     8c6:	10 92 1c 05 	sts	0x051C, r1	; 0x80051c <transmit_in_progress>
     8ca:	e0 91 73 09 	lds	r30, 0x0973	; 0x800973 <callback_R>
     8ce:	f0 91 74 09 	lds	r31, 0x0974	; 0x800974 <callback_R+0x1>
     8d2:	81 e0       	ldi	r24, 0x01	; 1
     8d4:	09 95       	icall
     8d6:	0b c0       	rjmp	.+22     	; 0x8ee <__vector_26+0x13c>
     8d8:	84 e9       	ldi	r24, 0x94	; 148
     8da:	80 93 bc 00 	sts	0x00BC, r24	; 0x8000bc <__TEXT_REGION_LENGTH__+0x7e00bc>
     8de:	10 92 1c 05 	sts	0x051C, r1	; 0x80051c <transmit_in_progress>
     8e2:	e0 91 73 09 	lds	r30, 0x0973	; 0x800973 <callback_R>
     8e6:	f0 91 74 09 	lds	r31, 0x0974	; 0x800974 <callback_R+0x1>
     8ea:	81 e0       	ldi	r24, 0x01	; 1
     8ec:	09 95       	icall
     8ee:	ff 91       	pop	r31
     8f0:	ef 91       	pop	r30
     8f2:	bf 91       	pop	r27
     8f4:	af 91       	pop	r26
     8f6:	9f 91       	pop	r25
     8f8:	8f 91       	pop	r24
     8fa:	7f 91       	pop	r23
     8fc:	6f 91       	pop	r22
     8fe:	5f 91       	pop	r21
     900:	4f 91       	pop	r20
     902:	3f 91       	pop	r19
     904:	2f 91       	pop	r18
     906:	0f 90       	pop	r0
     908:	0b be       	out	0x3b, r0	; 59
     90a:	0f 90       	pop	r0
     90c:	0f be       	out	0x3f, r0	; 63
     90e:	0f 90       	pop	r0
     910:	1f 90       	pop	r1
     912:	18 95       	reti

00000914 <led_init>:
     914:	8f ef       	ldi	r24, 0xFF	; 255
     916:	81 b9       	out	0x01, r24	; 1
     918:	82 b9       	out	0x02, r24	; 2
     91a:	08 95       	ret

0000091c <led_toggle>:
     91c:	92 b1       	in	r25, 0x02	; 2
     91e:	41 e0       	ldi	r20, 0x01	; 1
     920:	50 e0       	ldi	r21, 0x00	; 0
     922:	60 e0       	ldi	r22, 0x00	; 0
     924:	70 e0       	ldi	r23, 0x00	; 0
     926:	04 c0       	rjmp	.+8      	; 0x930 <led_toggle+0x14>
     928:	44 0f       	add	r20, r20
     92a:	55 1f       	adc	r21, r21
     92c:	66 1f       	adc	r22, r22
     92e:	77 1f       	adc	r23, r23
     930:	8a 95       	dec	r24
     932:	d2 f7       	brpl	.-12     	; 0x928 <led_toggle+0xc>
     934:	49 27       	eor	r20, r25
     936:	42 b9       	out	0x02, r20	; 2
     938:	08 95       	ret

0000093a <hibit>:
     93a:	98 2f       	mov	r25, r24
     93c:	96 95       	lsr	r25
     93e:	86 95       	lsr	r24
     940:	86 95       	lsr	r24
     942:	89 2b       	or	r24, r25
     944:	98 2f       	mov	r25, r24
     946:	96 95       	lsr	r25
     948:	96 95       	lsr	r25
     94a:	89 2b       	or	r24, r25
     94c:	98 2f       	mov	r25, r24
     94e:	92 95       	swap	r25
     950:	9f 70       	andi	r25, 0x0F	; 15
     952:	89 2b       	or	r24, r25
     954:	90 e0       	ldi	r25, 0x00	; 0
     956:	01 96       	adiw	r24, 0x01	; 1
     958:	95 95       	asr	r25
     95a:	87 95       	ror	r24
     95c:	08 95       	ret

0000095e <gf_inv>:
     95e:	ef 92       	push	r14
     960:	ff 92       	push	r15
     962:	0f 93       	push	r16
     964:	1f 93       	push	r17
     966:	cf 93       	push	r28
     968:	df 93       	push	r29
     96a:	08 2f       	mov	r16, r24
     96c:	e6 df       	rcall	.-52     	; 0x93a <hibit>
     96e:	d8 2f       	mov	r29, r24
     970:	02 30       	cpi	r16, 0x02	; 2
     972:	80 f1       	brcs	.+96     	; 0x9d4 <gf_inv+0x76>
     974:	f1 2c       	mov	r15, r1
     976:	ee 24       	eor	r14, r14
     978:	e3 94       	inc	r14
     97a:	c0 e8       	ldi	r28, 0x80	; 128
     97c:	1b e1       	ldi	r17, 0x1B	; 27
     97e:	d1 11       	cpse	r29, r1
     980:	11 c0       	rjmp	.+34     	; 0x9a4 <gf_inv+0x46>
     982:	8e 2d       	mov	r24, r14
     984:	28 c0       	rjmp	.+80     	; 0x9d6 <gf_inv+0x78>
     986:	8c 2f       	mov	r24, r28
     988:	6d 2f       	mov	r22, r29
     98a:	0e 94 1e 21 	call	0x423c	; 0x423c <__udivmodqi4>
     98e:	08 9f       	mul	r16, r24
     990:	90 2d       	mov	r25, r0
     992:	11 24       	eor	r1, r1
     994:	19 27       	eor	r17, r25
     996:	e8 9e       	mul	r14, r24
     998:	80 2d       	mov	r24, r0
     99a:	11 24       	eor	r1, r1
     99c:	f8 26       	eor	r15, r24
     99e:	81 2f       	mov	r24, r17
     9a0:	cc df       	rcall	.-104    	; 0x93a <hibit>
     9a2:	c8 2f       	mov	r28, r24
     9a4:	cd 17       	cp	r28, r29
     9a6:	78 f7       	brcc	.-34     	; 0x986 <gf_inv+0x28>
     9a8:	c1 11       	cpse	r28, r1
     9aa:	11 c0       	rjmp	.+34     	; 0x9ce <gf_inv+0x70>
     9ac:	8f 2d       	mov	r24, r15
     9ae:	13 c0       	rjmp	.+38     	; 0x9d6 <gf_inv+0x78>
     9b0:	8d 2f       	mov	r24, r29
     9b2:	6c 2f       	mov	r22, r28
     9b4:	0e 94 1e 21 	call	0x423c	; 0x423c <__udivmodqi4>
     9b8:	18 9f       	mul	r17, r24
     9ba:	90 2d       	mov	r25, r0
     9bc:	11 24       	eor	r1, r1
     9be:	09 27       	eor	r16, r25
     9c0:	f8 9e       	mul	r15, r24
     9c2:	80 2d       	mov	r24, r0
     9c4:	11 24       	eor	r1, r1
     9c6:	e8 26       	eor	r14, r24
     9c8:	80 2f       	mov	r24, r16
     9ca:	b7 df       	rcall	.-146    	; 0x93a <hibit>
     9cc:	d8 2f       	mov	r29, r24
     9ce:	dc 17       	cp	r29, r28
     9d0:	78 f7       	brcc	.-34     	; 0x9b0 <gf_inv+0x52>
     9d2:	d5 cf       	rjmp	.-86     	; 0x97e <gf_inv+0x20>
     9d4:	80 2f       	mov	r24, r16
     9d6:	df 91       	pop	r29
     9d8:	cf 91       	pop	r28
     9da:	1f 91       	pop	r17
     9dc:	0f 91       	pop	r16
     9de:	ff 90       	pop	r15
     9e0:	ef 90       	pop	r14
     9e2:	08 95       	ret

000009e4 <fwd_affine>:
     9e4:	28 2f       	mov	r18, r24
     9e6:	30 e0       	ldi	r19, 0x00	; 0
     9e8:	f9 01       	movw	r30, r18
     9ea:	ee 0f       	add	r30, r30
     9ec:	ff 1f       	adc	r31, r31
     9ee:	b9 01       	movw	r22, r18
     9f0:	66 0f       	add	r22, r22
     9f2:	77 1f       	adc	r23, r23
     9f4:	66 0f       	add	r22, r22
     9f6:	77 1f       	adc	r23, r23
     9f8:	a9 01       	movw	r20, r18
     9fa:	44 0f       	add	r20, r20
     9fc:	55 1f       	adc	r21, r21
     9fe:	44 0f       	add	r20, r20
     a00:	55 1f       	adc	r21, r21
     a02:	44 0f       	add	r20, r20
     a04:	55 1f       	adc	r21, r21
     a06:	22 95       	swap	r18
     a08:	32 95       	swap	r19
     a0a:	30 7f       	andi	r19, 0xF0	; 240
     a0c:	32 27       	eor	r19, r18
     a0e:	20 7f       	andi	r18, 0xF0	; 240
     a10:	32 27       	eor	r19, r18
     a12:	e8 27       	eor	r30, r24
     a14:	6e 27       	eor	r22, r30
     a16:	46 27       	eor	r20, r22
     a18:	24 27       	eor	r18, r20
     a1a:	98 2f       	mov	r25, r24
     a1c:	99 1f       	adc	r25, r25
     a1e:	99 27       	eor	r25, r25
     a20:	99 1f       	adc	r25, r25
     a22:	29 27       	eor	r18, r25
     a24:	98 2f       	mov	r25, r24
     a26:	92 95       	swap	r25
     a28:	96 95       	lsr	r25
     a2a:	96 95       	lsr	r25
     a2c:	93 70       	andi	r25, 0x03	; 3
     a2e:	29 27       	eor	r18, r25
     a30:	98 2f       	mov	r25, r24
     a32:	92 95       	swap	r25
     a34:	96 95       	lsr	r25
     a36:	97 70       	andi	r25, 0x07	; 7
     a38:	29 27       	eor	r18, r25
     a3a:	82 95       	swap	r24
     a3c:	8f 70       	andi	r24, 0x0F	; 15
     a3e:	82 27       	eor	r24, r18
     a40:	93 e6       	ldi	r25, 0x63	; 99
     a42:	89 27       	eor	r24, r25
     a44:	08 95       	ret

00000a46 <xor_block>:
     a46:	fc 01       	movw	r30, r24
     a48:	db 01       	movw	r26, r22
     a4a:	8c 91       	ld	r24, X
     a4c:	90 81       	ld	r25, Z
     a4e:	89 27       	eor	r24, r25
     a50:	80 83       	st	Z, r24
     a52:	11 96       	adiw	r26, 0x01	; 1
     a54:	8c 91       	ld	r24, X
     a56:	11 97       	sbiw	r26, 0x01	; 1
     a58:	91 81       	ldd	r25, Z+1	; 0x01
     a5a:	89 27       	eor	r24, r25
     a5c:	81 83       	std	Z+1, r24	; 0x01
     a5e:	12 96       	adiw	r26, 0x02	; 2
     a60:	8c 91       	ld	r24, X
     a62:	12 97       	sbiw	r26, 0x02	; 2
     a64:	92 81       	ldd	r25, Z+2	; 0x02
     a66:	89 27       	eor	r24, r25
     a68:	82 83       	std	Z+2, r24	; 0x02
     a6a:	13 96       	adiw	r26, 0x03	; 3
     a6c:	8c 91       	ld	r24, X
     a6e:	13 97       	sbiw	r26, 0x03	; 3
     a70:	93 81       	ldd	r25, Z+3	; 0x03
     a72:	89 27       	eor	r24, r25
     a74:	83 83       	std	Z+3, r24	; 0x03
     a76:	14 96       	adiw	r26, 0x04	; 4
     a78:	8c 91       	ld	r24, X
     a7a:	14 97       	sbiw	r26, 0x04	; 4
     a7c:	94 81       	ldd	r25, Z+4	; 0x04
     a7e:	89 27       	eor	r24, r25
     a80:	84 83       	std	Z+4, r24	; 0x04
     a82:	15 96       	adiw	r26, 0x05	; 5
     a84:	8c 91       	ld	r24, X
     a86:	15 97       	sbiw	r26, 0x05	; 5
     a88:	95 81       	ldd	r25, Z+5	; 0x05
     a8a:	89 27       	eor	r24, r25
     a8c:	85 83       	std	Z+5, r24	; 0x05
     a8e:	16 96       	adiw	r26, 0x06	; 6
     a90:	8c 91       	ld	r24, X
     a92:	16 97       	sbiw	r26, 0x06	; 6
     a94:	96 81       	ldd	r25, Z+6	; 0x06
     a96:	89 27       	eor	r24, r25
     a98:	86 83       	std	Z+6, r24	; 0x06
     a9a:	17 96       	adiw	r26, 0x07	; 7
     a9c:	8c 91       	ld	r24, X
     a9e:	17 97       	sbiw	r26, 0x07	; 7
     aa0:	97 81       	ldd	r25, Z+7	; 0x07
     aa2:	89 27       	eor	r24, r25
     aa4:	87 83       	std	Z+7, r24	; 0x07
     aa6:	18 96       	adiw	r26, 0x08	; 8
     aa8:	8c 91       	ld	r24, X
     aaa:	18 97       	sbiw	r26, 0x08	; 8
     aac:	90 85       	ldd	r25, Z+8	; 0x08
     aae:	89 27       	eor	r24, r25
     ab0:	80 87       	std	Z+8, r24	; 0x08
     ab2:	19 96       	adiw	r26, 0x09	; 9
     ab4:	8c 91       	ld	r24, X
     ab6:	19 97       	sbiw	r26, 0x09	; 9
     ab8:	91 85       	ldd	r25, Z+9	; 0x09
     aba:	89 27       	eor	r24, r25
     abc:	81 87       	std	Z+9, r24	; 0x09
     abe:	1a 96       	adiw	r26, 0x0a	; 10
     ac0:	8c 91       	ld	r24, X
     ac2:	1a 97       	sbiw	r26, 0x0a	; 10
     ac4:	92 85       	ldd	r25, Z+10	; 0x0a
     ac6:	89 27       	eor	r24, r25
     ac8:	82 87       	std	Z+10, r24	; 0x0a
     aca:	1b 96       	adiw	r26, 0x0b	; 11
     acc:	8c 91       	ld	r24, X
     ace:	1b 97       	sbiw	r26, 0x0b	; 11
     ad0:	93 85       	ldd	r25, Z+11	; 0x0b
     ad2:	89 27       	eor	r24, r25
     ad4:	83 87       	std	Z+11, r24	; 0x0b
     ad6:	1c 96       	adiw	r26, 0x0c	; 12
     ad8:	8c 91       	ld	r24, X
     ada:	1c 97       	sbiw	r26, 0x0c	; 12
     adc:	94 85       	ldd	r25, Z+12	; 0x0c
     ade:	89 27       	eor	r24, r25
     ae0:	84 87       	std	Z+12, r24	; 0x0c
     ae2:	1d 96       	adiw	r26, 0x0d	; 13
     ae4:	8c 91       	ld	r24, X
     ae6:	1d 97       	sbiw	r26, 0x0d	; 13
     ae8:	95 85       	ldd	r25, Z+13	; 0x0d
     aea:	89 27       	eor	r24, r25
     aec:	85 87       	std	Z+13, r24	; 0x0d
     aee:	1e 96       	adiw	r26, 0x0e	; 14
     af0:	8c 91       	ld	r24, X
     af2:	1e 97       	sbiw	r26, 0x0e	; 14
     af4:	96 85       	ldd	r25, Z+14	; 0x0e
     af6:	89 27       	eor	r24, r25
     af8:	86 87       	std	Z+14, r24	; 0x0e
     afa:	1f 96       	adiw	r26, 0x0f	; 15
     afc:	8c 91       	ld	r24, X
     afe:	97 85       	ldd	r25, Z+15	; 0x0f
     b00:	89 27       	eor	r24, r25
     b02:	87 87       	std	Z+15, r24	; 0x0f
     b04:	08 95       	ret

00000b06 <copy_and_key>:
     b06:	cf 93       	push	r28
     b08:	df 93       	push	r29
     b0a:	fc 01       	movw	r30, r24
     b0c:	eb 01       	movw	r28, r22
     b0e:	da 01       	movw	r26, r20
     b10:	98 81       	ld	r25, Y
     b12:	8c 91       	ld	r24, X
     b14:	89 27       	eor	r24, r25
     b16:	80 83       	st	Z, r24
     b18:	99 81       	ldd	r25, Y+1	; 0x01
     b1a:	11 96       	adiw	r26, 0x01	; 1
     b1c:	8c 91       	ld	r24, X
     b1e:	11 97       	sbiw	r26, 0x01	; 1
     b20:	89 27       	eor	r24, r25
     b22:	81 83       	std	Z+1, r24	; 0x01
     b24:	9a 81       	ldd	r25, Y+2	; 0x02
     b26:	12 96       	adiw	r26, 0x02	; 2
     b28:	8c 91       	ld	r24, X
     b2a:	12 97       	sbiw	r26, 0x02	; 2
     b2c:	89 27       	eor	r24, r25
     b2e:	82 83       	std	Z+2, r24	; 0x02
     b30:	9b 81       	ldd	r25, Y+3	; 0x03
     b32:	13 96       	adiw	r26, 0x03	; 3
     b34:	8c 91       	ld	r24, X
     b36:	13 97       	sbiw	r26, 0x03	; 3
     b38:	89 27       	eor	r24, r25
     b3a:	83 83       	std	Z+3, r24	; 0x03
     b3c:	9c 81       	ldd	r25, Y+4	; 0x04
     b3e:	14 96       	adiw	r26, 0x04	; 4
     b40:	8c 91       	ld	r24, X
     b42:	14 97       	sbiw	r26, 0x04	; 4
     b44:	89 27       	eor	r24, r25
     b46:	84 83       	std	Z+4, r24	; 0x04
     b48:	9d 81       	ldd	r25, Y+5	; 0x05
     b4a:	15 96       	adiw	r26, 0x05	; 5
     b4c:	8c 91       	ld	r24, X
     b4e:	15 97       	sbiw	r26, 0x05	; 5
     b50:	89 27       	eor	r24, r25
     b52:	85 83       	std	Z+5, r24	; 0x05
     b54:	9e 81       	ldd	r25, Y+6	; 0x06
     b56:	16 96       	adiw	r26, 0x06	; 6
     b58:	8c 91       	ld	r24, X
     b5a:	16 97       	sbiw	r26, 0x06	; 6
     b5c:	89 27       	eor	r24, r25
     b5e:	86 83       	std	Z+6, r24	; 0x06
     b60:	9f 81       	ldd	r25, Y+7	; 0x07
     b62:	17 96       	adiw	r26, 0x07	; 7
     b64:	8c 91       	ld	r24, X
     b66:	17 97       	sbiw	r26, 0x07	; 7
     b68:	89 27       	eor	r24, r25
     b6a:	87 83       	std	Z+7, r24	; 0x07
     b6c:	98 85       	ldd	r25, Y+8	; 0x08
     b6e:	18 96       	adiw	r26, 0x08	; 8
     b70:	8c 91       	ld	r24, X
     b72:	18 97       	sbiw	r26, 0x08	; 8
     b74:	89 27       	eor	r24, r25
     b76:	80 87       	std	Z+8, r24	; 0x08
     b78:	99 85       	ldd	r25, Y+9	; 0x09
     b7a:	19 96       	adiw	r26, 0x09	; 9
     b7c:	8c 91       	ld	r24, X
     b7e:	19 97       	sbiw	r26, 0x09	; 9
     b80:	89 27       	eor	r24, r25
     b82:	81 87       	std	Z+9, r24	; 0x09
     b84:	9a 85       	ldd	r25, Y+10	; 0x0a
     b86:	1a 96       	adiw	r26, 0x0a	; 10
     b88:	8c 91       	ld	r24, X
     b8a:	1a 97       	sbiw	r26, 0x0a	; 10
     b8c:	89 27       	eor	r24, r25
     b8e:	82 87       	std	Z+10, r24	; 0x0a
     b90:	9b 85       	ldd	r25, Y+11	; 0x0b
     b92:	1b 96       	adiw	r26, 0x0b	; 11
     b94:	8c 91       	ld	r24, X
     b96:	1b 97       	sbiw	r26, 0x0b	; 11
     b98:	89 27       	eor	r24, r25
     b9a:	83 87       	std	Z+11, r24	; 0x0b
     b9c:	9c 85       	ldd	r25, Y+12	; 0x0c
     b9e:	1c 96       	adiw	r26, 0x0c	; 12
     ba0:	8c 91       	ld	r24, X
     ba2:	1c 97       	sbiw	r26, 0x0c	; 12
     ba4:	89 27       	eor	r24, r25
     ba6:	84 87       	std	Z+12, r24	; 0x0c
     ba8:	9d 85       	ldd	r25, Y+13	; 0x0d
     baa:	1d 96       	adiw	r26, 0x0d	; 13
     bac:	8c 91       	ld	r24, X
     bae:	1d 97       	sbiw	r26, 0x0d	; 13
     bb0:	89 27       	eor	r24, r25
     bb2:	85 87       	std	Z+13, r24	; 0x0d
     bb4:	9e 85       	ldd	r25, Y+14	; 0x0e
     bb6:	1e 96       	adiw	r26, 0x0e	; 14
     bb8:	8c 91       	ld	r24, X
     bba:	1e 97       	sbiw	r26, 0x0e	; 14
     bbc:	89 27       	eor	r24, r25
     bbe:	86 87       	std	Z+14, r24	; 0x0e
     bc0:	9f 85       	ldd	r25, Y+15	; 0x0f
     bc2:	1f 96       	adiw	r26, 0x0f	; 15
     bc4:	8c 91       	ld	r24, X
     bc6:	89 27       	eor	r24, r25
     bc8:	87 87       	std	Z+15, r24	; 0x0f
     bca:	df 91       	pop	r29
     bcc:	cf 91       	pop	r28
     bce:	08 95       	ret

00000bd0 <add_round_key>:
     bd0:	3a cf       	rjmp	.-396    	; 0xa46 <xor_block>
     bd2:	08 95       	ret

00000bd4 <shift_sub_rows>:
     bd4:	1f 93       	push	r17
     bd6:	cf 93       	push	r28
     bd8:	df 93       	push	r29
     bda:	ec 01       	movw	r28, r24
     bdc:	88 81       	ld	r24, Y
     bde:	bf de       	rcall	.-642    	; 0x95e <gf_inv>
     be0:	01 df       	rcall	.-510    	; 0x9e4 <fwd_affine>
     be2:	88 83       	st	Y, r24
     be4:	8c 81       	ldd	r24, Y+4	; 0x04
     be6:	bb de       	rcall	.-650    	; 0x95e <gf_inv>
     be8:	fd de       	rcall	.-518    	; 0x9e4 <fwd_affine>
     bea:	8c 83       	std	Y+4, r24	; 0x04
     bec:	88 85       	ldd	r24, Y+8	; 0x08
     bee:	b7 de       	rcall	.-658    	; 0x95e <gf_inv>
     bf0:	f9 de       	rcall	.-526    	; 0x9e4 <fwd_affine>
     bf2:	88 87       	std	Y+8, r24	; 0x08
     bf4:	8c 85       	ldd	r24, Y+12	; 0x0c
     bf6:	b3 de       	rcall	.-666    	; 0x95e <gf_inv>
     bf8:	f5 de       	rcall	.-534    	; 0x9e4 <fwd_affine>
     bfa:	8c 87       	std	Y+12, r24	; 0x0c
     bfc:	19 81       	ldd	r17, Y+1	; 0x01
     bfe:	8d 81       	ldd	r24, Y+5	; 0x05
     c00:	ae de       	rcall	.-676    	; 0x95e <gf_inv>
     c02:	f0 de       	rcall	.-544    	; 0x9e4 <fwd_affine>
     c04:	89 83       	std	Y+1, r24	; 0x01
     c06:	89 85       	ldd	r24, Y+9	; 0x09
     c08:	aa de       	rcall	.-684    	; 0x95e <gf_inv>
     c0a:	ec de       	rcall	.-552    	; 0x9e4 <fwd_affine>
     c0c:	8d 83       	std	Y+5, r24	; 0x05
     c0e:	8d 85       	ldd	r24, Y+13	; 0x0d
     c10:	a6 de       	rcall	.-692    	; 0x95e <gf_inv>
     c12:	e8 de       	rcall	.-560    	; 0x9e4 <fwd_affine>
     c14:	89 87       	std	Y+9, r24	; 0x09
     c16:	81 2f       	mov	r24, r17
     c18:	a2 de       	rcall	.-700    	; 0x95e <gf_inv>
     c1a:	e4 de       	rcall	.-568    	; 0x9e4 <fwd_affine>
     c1c:	8d 87       	std	Y+13, r24	; 0x0d
     c1e:	1a 81       	ldd	r17, Y+2	; 0x02
     c20:	8a 85       	ldd	r24, Y+10	; 0x0a
     c22:	9d de       	rcall	.-710    	; 0x95e <gf_inv>
     c24:	df de       	rcall	.-578    	; 0x9e4 <fwd_affine>
     c26:	8a 83       	std	Y+2, r24	; 0x02
     c28:	81 2f       	mov	r24, r17
     c2a:	99 de       	rcall	.-718    	; 0x95e <gf_inv>
     c2c:	db de       	rcall	.-586    	; 0x9e4 <fwd_affine>
     c2e:	8a 87       	std	Y+10, r24	; 0x0a
     c30:	1e 81       	ldd	r17, Y+6	; 0x06
     c32:	8e 85       	ldd	r24, Y+14	; 0x0e
     c34:	94 de       	rcall	.-728    	; 0x95e <gf_inv>
     c36:	d6 de       	rcall	.-596    	; 0x9e4 <fwd_affine>
     c38:	8e 83       	std	Y+6, r24	; 0x06
     c3a:	81 2f       	mov	r24, r17
     c3c:	90 de       	rcall	.-736    	; 0x95e <gf_inv>
     c3e:	d2 de       	rcall	.-604    	; 0x9e4 <fwd_affine>
     c40:	8e 87       	std	Y+14, r24	; 0x0e
     c42:	1f 85       	ldd	r17, Y+15	; 0x0f
     c44:	8b 85       	ldd	r24, Y+11	; 0x0b
     c46:	8b de       	rcall	.-746    	; 0x95e <gf_inv>
     c48:	cd de       	rcall	.-614    	; 0x9e4 <fwd_affine>
     c4a:	8f 87       	std	Y+15, r24	; 0x0f
     c4c:	8f 81       	ldd	r24, Y+7	; 0x07
     c4e:	87 de       	rcall	.-754    	; 0x95e <gf_inv>
     c50:	c9 de       	rcall	.-622    	; 0x9e4 <fwd_affine>
     c52:	8b 87       	std	Y+11, r24	; 0x0b
     c54:	8b 81       	ldd	r24, Y+3	; 0x03
     c56:	83 de       	rcall	.-762    	; 0x95e <gf_inv>
     c58:	c5 de       	rcall	.-630    	; 0x9e4 <fwd_affine>
     c5a:	8f 83       	std	Y+7, r24	; 0x07
     c5c:	81 2f       	mov	r24, r17
     c5e:	7f de       	rcall	.-770    	; 0x95e <gf_inv>
     c60:	c1 de       	rcall	.-638    	; 0x9e4 <fwd_affine>
     c62:	8b 83       	std	Y+3, r24	; 0x03
     c64:	df 91       	pop	r29
     c66:	cf 91       	pop	r28
     c68:	1f 91       	pop	r17
     c6a:	08 95       	ret

00000c6c <mix_sub_columns>:
     c6c:	9f 92       	push	r9
     c6e:	af 92       	push	r10
     c70:	bf 92       	push	r11
     c72:	cf 92       	push	r12
     c74:	df 92       	push	r13
     c76:	ef 92       	push	r14
     c78:	ff 92       	push	r15
     c7a:	0f 93       	push	r16
     c7c:	1f 93       	push	r17
     c7e:	cf 93       	push	r28
     c80:	df 93       	push	r29
     c82:	cd b7       	in	r28, 0x3d	; 61
     c84:	de b7       	in	r29, 0x3e	; 62
     c86:	60 97       	sbiw	r28, 0x10	; 16
     c88:	0f b6       	in	r0, 0x3f	; 63
     c8a:	f8 94       	cli
     c8c:	de bf       	out	0x3e, r29	; 62
     c8e:	0f be       	out	0x3f, r0	; 63
     c90:	cd bf       	out	0x3d, r28	; 61
     c92:	8c 01       	movw	r16, r24
     c94:	80 e1       	ldi	r24, 0x10	; 16
     c96:	f8 01       	movw	r30, r16
     c98:	de 01       	movw	r26, r28
     c9a:	11 96       	adiw	r26, 0x01	; 1
     c9c:	01 90       	ld	r0, Z+
     c9e:	0d 92       	st	X+, r0
     ca0:	8a 95       	dec	r24
     ca2:	e1 f7       	brne	.-8      	; 0xc9c <mix_sub_columns+0x30>
     ca4:	89 81       	ldd	r24, Y+1	; 0x01
     ca6:	5b de       	rcall	.-842    	; 0x95e <gf_inv>
     ca8:	9d de       	rcall	.-710    	; 0x9e4 <fwd_affine>
     caa:	c8 2e       	mov	r12, r24
     cac:	90 e0       	ldi	r25, 0x00	; 0
     cae:	88 0f       	add	r24, r24
     cb0:	99 1f       	adc	r25, r25
     cb2:	bc 2c       	mov	r11, r12
     cb4:	bb 1c       	adc	r11, r11
     cb6:	bb 24       	eor	r11, r11
     cb8:	bb 1c       	adc	r11, r11
     cba:	0f 2e       	mov	r0, r31
     cbc:	fb e1       	ldi	r31, 0x1B	; 27
     cbe:	ff 2e       	mov	r15, r31
     cc0:	f0 2d       	mov	r31, r0
     cc2:	bf 9c       	mul	r11, r15
     cc4:	b0 2c       	mov	r11, r0
     cc6:	11 24       	eor	r1, r1
     cc8:	b8 26       	eor	r11, r24
     cca:	8e 81       	ldd	r24, Y+6	; 0x06
     ccc:	48 de       	rcall	.-880    	; 0x95e <gf_inv>
     cce:	8a de       	rcall	.-748    	; 0x9e4 <fwd_affine>
     cd0:	d8 2e       	mov	r13, r24
     cd2:	90 e0       	ldi	r25, 0x00	; 0
     cd4:	88 0f       	add	r24, r24
     cd6:	99 1f       	adc	r25, r25
     cd8:	ad 2c       	mov	r10, r13
     cda:	aa 1c       	adc	r10, r10
     cdc:	aa 24       	eor	r10, r10
     cde:	aa 1c       	adc	r10, r10
     ce0:	af 9c       	mul	r10, r15
     ce2:	a0 2c       	mov	r10, r0
     ce4:	11 24       	eor	r1, r1
     ce6:	a8 26       	eor	r10, r24
     ce8:	9a 2c       	mov	r9, r10
     cea:	9d 24       	eor	r9, r13
     cec:	9b 24       	eor	r9, r11
     cee:	8b 85       	ldd	r24, Y+11	; 0x0b
     cf0:	36 de       	rcall	.-916    	; 0x95e <gf_inv>
     cf2:	78 de       	rcall	.-784    	; 0x9e4 <fwd_affine>
     cf4:	e8 2e       	mov	r14, r24
     cf6:	98 26       	eor	r9, r24
     cf8:	88 89       	ldd	r24, Y+16	; 0x10
     cfa:	31 de       	rcall	.-926    	; 0x95e <gf_inv>
     cfc:	73 de       	rcall	.-794    	; 0x9e4 <fwd_affine>
     cfe:	98 26       	eor	r9, r24
     d00:	f8 01       	movw	r30, r16
     d02:	90 82       	st	Z, r9
     d04:	2e 2d       	mov	r18, r14
     d06:	30 e0       	ldi	r19, 0x00	; 0
     d08:	22 0f       	add	r18, r18
     d0a:	33 1f       	adc	r19, r19
     d0c:	9e 2d       	mov	r25, r14
     d0e:	99 1f       	adc	r25, r25
     d10:	99 27       	eor	r25, r25
     d12:	99 1f       	adc	r25, r25
     d14:	9f 9d       	mul	r25, r15
     d16:	90 2d       	mov	r25, r0
     d18:	11 24       	eor	r1, r1
     d1a:	92 27       	eor	r25, r18
     d1c:	ac 24       	eor	r10, r12
     d1e:	2e 2d       	mov	r18, r14
     d20:	29 27       	eor	r18, r25
     d22:	a2 26       	eor	r10, r18
     d24:	a8 26       	eor	r10, r24
     d26:	a1 82       	std	Z+1, r10	; 0x01
     d28:	28 2f       	mov	r18, r24
     d2a:	30 e0       	ldi	r19, 0x00	; 0
     d2c:	22 0f       	add	r18, r18
     d2e:	33 1f       	adc	r19, r19
     d30:	38 2f       	mov	r19, r24
     d32:	33 1f       	adc	r19, r19
     d34:	33 27       	eor	r19, r19
     d36:	33 1f       	adc	r19, r19
     d38:	3f 9d       	mul	r19, r15
     d3a:	30 2d       	mov	r19, r0
     d3c:	11 24       	eor	r1, r1
     d3e:	23 27       	eor	r18, r19
     d40:	3c 2d       	mov	r19, r12
     d42:	3d 25       	eor	r19, r13
     d44:	93 27       	eor	r25, r19
     d46:	82 27       	eor	r24, r18
     d48:	89 27       	eor	r24, r25
     d4a:	82 83       	std	Z+2, r24	; 0x02
     d4c:	cb 24       	eor	r12, r11
     d4e:	dc 24       	eor	r13, r12
     d50:	ed 24       	eor	r14, r13
     d52:	2e 25       	eor	r18, r14
     d54:	23 83       	std	Z+3, r18	; 0x03
     d56:	8d 81       	ldd	r24, Y+5	; 0x05
     d58:	02 de       	rcall	.-1020   	; 0x95e <gf_inv>
     d5a:	44 de       	rcall	.-888    	; 0x9e4 <fwd_affine>
     d5c:	c8 2e       	mov	r12, r24
     d5e:	90 e0       	ldi	r25, 0x00	; 0
     d60:	88 0f       	add	r24, r24
     d62:	99 1f       	adc	r25, r25
     d64:	bc 2c       	mov	r11, r12
     d66:	bb 1c       	adc	r11, r11
     d68:	bb 24       	eor	r11, r11
     d6a:	bb 1c       	adc	r11, r11
     d6c:	bf 9c       	mul	r11, r15
     d6e:	b0 2c       	mov	r11, r0
     d70:	11 24       	eor	r1, r1
     d72:	b8 26       	eor	r11, r24
     d74:	8a 85       	ldd	r24, Y+10	; 0x0a
     d76:	f3 dd       	rcall	.-1050   	; 0x95e <gf_inv>
     d78:	35 de       	rcall	.-918    	; 0x9e4 <fwd_affine>
     d7a:	d8 2e       	mov	r13, r24
     d7c:	90 e0       	ldi	r25, 0x00	; 0
     d7e:	88 0f       	add	r24, r24
     d80:	99 1f       	adc	r25, r25
     d82:	ad 2c       	mov	r10, r13
     d84:	aa 1c       	adc	r10, r10
     d86:	aa 24       	eor	r10, r10
     d88:	aa 1c       	adc	r10, r10
     d8a:	af 9c       	mul	r10, r15
     d8c:	a0 2c       	mov	r10, r0
     d8e:	11 24       	eor	r1, r1
     d90:	a8 26       	eor	r10, r24
     d92:	9a 2c       	mov	r9, r10
     d94:	9d 24       	eor	r9, r13
     d96:	9b 24       	eor	r9, r11
     d98:	8f 85       	ldd	r24, Y+15	; 0x0f
     d9a:	e1 dd       	rcall	.-1086   	; 0x95e <gf_inv>
     d9c:	23 de       	rcall	.-954    	; 0x9e4 <fwd_affine>
     d9e:	e8 2e       	mov	r14, r24
     da0:	98 26       	eor	r9, r24
     da2:	8c 81       	ldd	r24, Y+4	; 0x04
     da4:	dc dd       	rcall	.-1096   	; 0x95e <gf_inv>
     da6:	1e de       	rcall	.-964    	; 0x9e4 <fwd_affine>
     da8:	98 26       	eor	r9, r24
     daa:	f8 01       	movw	r30, r16
     dac:	94 82       	std	Z+4, r9	; 0x04
     dae:	2e 2d       	mov	r18, r14
     db0:	30 e0       	ldi	r19, 0x00	; 0
     db2:	22 0f       	add	r18, r18
     db4:	33 1f       	adc	r19, r19
     db6:	9e 2d       	mov	r25, r14
     db8:	99 1f       	adc	r25, r25
     dba:	99 27       	eor	r25, r25
     dbc:	99 1f       	adc	r25, r25
     dbe:	9f 9d       	mul	r25, r15
     dc0:	90 2d       	mov	r25, r0
     dc2:	11 24       	eor	r1, r1
     dc4:	92 27       	eor	r25, r18
     dc6:	ac 24       	eor	r10, r12
     dc8:	2e 2d       	mov	r18, r14
     dca:	29 27       	eor	r18, r25
     dcc:	a2 26       	eor	r10, r18
     dce:	a8 26       	eor	r10, r24
     dd0:	a5 82       	std	Z+5, r10	; 0x05
     dd2:	28 2f       	mov	r18, r24
     dd4:	30 e0       	ldi	r19, 0x00	; 0
     dd6:	22 0f       	add	r18, r18
     dd8:	33 1f       	adc	r19, r19
     dda:	38 2f       	mov	r19, r24
     ddc:	33 1f       	adc	r19, r19
     dde:	33 27       	eor	r19, r19
     de0:	33 1f       	adc	r19, r19
     de2:	3f 9d       	mul	r19, r15
     de4:	30 2d       	mov	r19, r0
     de6:	11 24       	eor	r1, r1
     de8:	23 27       	eor	r18, r19
     dea:	3c 2d       	mov	r19, r12
     dec:	3d 25       	eor	r19, r13
     dee:	93 27       	eor	r25, r19
     df0:	82 27       	eor	r24, r18
     df2:	89 27       	eor	r24, r25
     df4:	86 83       	std	Z+6, r24	; 0x06
     df6:	cb 24       	eor	r12, r11
     df8:	dc 24       	eor	r13, r12
     dfa:	ed 24       	eor	r14, r13
     dfc:	2e 25       	eor	r18, r14
     dfe:	27 83       	std	Z+7, r18	; 0x07
     e00:	89 85       	ldd	r24, Y+9	; 0x09
     e02:	ad dd       	rcall	.-1190   	; 0x95e <gf_inv>
     e04:	ef dd       	rcall	.-1058   	; 0x9e4 <fwd_affine>
     e06:	c8 2e       	mov	r12, r24
     e08:	90 e0       	ldi	r25, 0x00	; 0
     e0a:	88 0f       	add	r24, r24
     e0c:	99 1f       	adc	r25, r25
     e0e:	bc 2c       	mov	r11, r12
     e10:	bb 1c       	adc	r11, r11
     e12:	bb 24       	eor	r11, r11
     e14:	bb 1c       	adc	r11, r11
     e16:	bf 9c       	mul	r11, r15
     e18:	b0 2c       	mov	r11, r0
     e1a:	11 24       	eor	r1, r1
     e1c:	b8 26       	eor	r11, r24
     e1e:	8e 85       	ldd	r24, Y+14	; 0x0e
     e20:	9e dd       	rcall	.-1220   	; 0x95e <gf_inv>
     e22:	e0 dd       	rcall	.-1088   	; 0x9e4 <fwd_affine>
     e24:	d8 2e       	mov	r13, r24
     e26:	90 e0       	ldi	r25, 0x00	; 0
     e28:	88 0f       	add	r24, r24
     e2a:	99 1f       	adc	r25, r25
     e2c:	ad 2c       	mov	r10, r13
     e2e:	aa 1c       	adc	r10, r10
     e30:	aa 24       	eor	r10, r10
     e32:	aa 1c       	adc	r10, r10
     e34:	af 9c       	mul	r10, r15
     e36:	a0 2c       	mov	r10, r0
     e38:	11 24       	eor	r1, r1
     e3a:	a8 26       	eor	r10, r24
     e3c:	9a 2c       	mov	r9, r10
     e3e:	9d 24       	eor	r9, r13
     e40:	9b 24       	eor	r9, r11
     e42:	8b 81       	ldd	r24, Y+3	; 0x03
     e44:	8c dd       	rcall	.-1256   	; 0x95e <gf_inv>
     e46:	ce dd       	rcall	.-1124   	; 0x9e4 <fwd_affine>
     e48:	e8 2e       	mov	r14, r24
     e4a:	98 26       	eor	r9, r24
     e4c:	88 85       	ldd	r24, Y+8	; 0x08
     e4e:	87 dd       	rcall	.-1266   	; 0x95e <gf_inv>
     e50:	c9 dd       	rcall	.-1134   	; 0x9e4 <fwd_affine>
     e52:	98 26       	eor	r9, r24
     e54:	f8 01       	movw	r30, r16
     e56:	90 86       	std	Z+8, r9	; 0x08
     e58:	2e 2d       	mov	r18, r14
     e5a:	30 e0       	ldi	r19, 0x00	; 0
     e5c:	22 0f       	add	r18, r18
     e5e:	33 1f       	adc	r19, r19
     e60:	9e 2d       	mov	r25, r14
     e62:	99 1f       	adc	r25, r25
     e64:	99 27       	eor	r25, r25
     e66:	99 1f       	adc	r25, r25
     e68:	9f 9d       	mul	r25, r15
     e6a:	90 2d       	mov	r25, r0
     e6c:	11 24       	eor	r1, r1
     e6e:	92 27       	eor	r25, r18
     e70:	ac 24       	eor	r10, r12
     e72:	2e 2d       	mov	r18, r14
     e74:	29 27       	eor	r18, r25
     e76:	a2 26       	eor	r10, r18
     e78:	a8 26       	eor	r10, r24
     e7a:	a1 86       	std	Z+9, r10	; 0x09
     e7c:	28 2f       	mov	r18, r24
     e7e:	30 e0       	ldi	r19, 0x00	; 0
     e80:	22 0f       	add	r18, r18
     e82:	33 1f       	adc	r19, r19
     e84:	38 2f       	mov	r19, r24
     e86:	33 1f       	adc	r19, r19
     e88:	33 27       	eor	r19, r19
     e8a:	33 1f       	adc	r19, r19
     e8c:	3f 9d       	mul	r19, r15
     e8e:	30 2d       	mov	r19, r0
     e90:	11 24       	eor	r1, r1
     e92:	23 27       	eor	r18, r19
     e94:	3c 2d       	mov	r19, r12
     e96:	3d 25       	eor	r19, r13
     e98:	93 27       	eor	r25, r19
     e9a:	82 27       	eor	r24, r18
     e9c:	89 27       	eor	r24, r25
     e9e:	82 87       	std	Z+10, r24	; 0x0a
     ea0:	cb 24       	eor	r12, r11
     ea2:	dc 24       	eor	r13, r12
     ea4:	ed 24       	eor	r14, r13
     ea6:	2e 25       	eor	r18, r14
     ea8:	23 87       	std	Z+11, r18	; 0x0b
     eaa:	8d 85       	ldd	r24, Y+13	; 0x0d
     eac:	58 dd       	rcall	.-1360   	; 0x95e <gf_inv>
     eae:	9a dd       	rcall	.-1228   	; 0x9e4 <fwd_affine>
     eb0:	c8 2e       	mov	r12, r24
     eb2:	90 e0       	ldi	r25, 0x00	; 0
     eb4:	88 0f       	add	r24, r24
     eb6:	99 1f       	adc	r25, r25
     eb8:	bc 2c       	mov	r11, r12
     eba:	bb 1c       	adc	r11, r11
     ebc:	bb 24       	eor	r11, r11
     ebe:	bb 1c       	adc	r11, r11
     ec0:	bf 9c       	mul	r11, r15
     ec2:	b0 2c       	mov	r11, r0
     ec4:	11 24       	eor	r1, r1
     ec6:	b8 26       	eor	r11, r24
     ec8:	8a 81       	ldd	r24, Y+2	; 0x02
     eca:	49 dd       	rcall	.-1390   	; 0x95e <gf_inv>
     ecc:	8b dd       	rcall	.-1258   	; 0x9e4 <fwd_affine>
     ece:	d8 2e       	mov	r13, r24
     ed0:	90 e0       	ldi	r25, 0x00	; 0
     ed2:	88 0f       	add	r24, r24
     ed4:	99 1f       	adc	r25, r25
     ed6:	ad 2c       	mov	r10, r13
     ed8:	aa 1c       	adc	r10, r10
     eda:	aa 24       	eor	r10, r10
     edc:	aa 1c       	adc	r10, r10
     ede:	af 9c       	mul	r10, r15
     ee0:	a0 2c       	mov	r10, r0
     ee2:	11 24       	eor	r1, r1
     ee4:	a8 26       	eor	r10, r24
     ee6:	9a 2c       	mov	r9, r10
     ee8:	9d 24       	eor	r9, r13
     eea:	9b 24       	eor	r9, r11
     eec:	8f 81       	ldd	r24, Y+7	; 0x07
     eee:	37 dd       	rcall	.-1426   	; 0x95e <gf_inv>
     ef0:	79 dd       	rcall	.-1294   	; 0x9e4 <fwd_affine>
     ef2:	e8 2e       	mov	r14, r24
     ef4:	98 26       	eor	r9, r24
     ef6:	8c 85       	ldd	r24, Y+12	; 0x0c
     ef8:	32 dd       	rcall	.-1436   	; 0x95e <gf_inv>
     efa:	74 dd       	rcall	.-1304   	; 0x9e4 <fwd_affine>
     efc:	98 26       	eor	r9, r24
     efe:	f8 01       	movw	r30, r16
     f00:	94 86       	std	Z+12, r9	; 0x0c
     f02:	2e 2d       	mov	r18, r14
     f04:	30 e0       	ldi	r19, 0x00	; 0
     f06:	22 0f       	add	r18, r18
     f08:	33 1f       	adc	r19, r19
     f0a:	9e 2d       	mov	r25, r14
     f0c:	99 1f       	adc	r25, r25
     f0e:	99 27       	eor	r25, r25
     f10:	99 1f       	adc	r25, r25
     f12:	9f 9d       	mul	r25, r15
     f14:	90 2d       	mov	r25, r0
     f16:	11 24       	eor	r1, r1
     f18:	92 27       	eor	r25, r18
     f1a:	ac 24       	eor	r10, r12
     f1c:	2e 2d       	mov	r18, r14
     f1e:	29 27       	eor	r18, r25
     f20:	a2 26       	eor	r10, r18
     f22:	a8 26       	eor	r10, r24
     f24:	a5 86       	std	Z+13, r10	; 0x0d
     f26:	28 2f       	mov	r18, r24
     f28:	30 e0       	ldi	r19, 0x00	; 0
     f2a:	22 0f       	add	r18, r18
     f2c:	33 1f       	adc	r19, r19
     f2e:	38 2f       	mov	r19, r24
     f30:	33 1f       	adc	r19, r19
     f32:	33 27       	eor	r19, r19
     f34:	33 1f       	adc	r19, r19
     f36:	3f 9d       	mul	r19, r15
     f38:	f0 2c       	mov	r15, r0
     f3a:	11 24       	eor	r1, r1
     f3c:	2f 25       	eor	r18, r15
     f3e:	3c 2d       	mov	r19, r12
     f40:	3d 25       	eor	r19, r13
     f42:	93 27       	eor	r25, r19
     f44:	82 27       	eor	r24, r18
     f46:	89 27       	eor	r24, r25
     f48:	86 87       	std	Z+14, r24	; 0x0e
     f4a:	cb 24       	eor	r12, r11
     f4c:	dc 24       	eor	r13, r12
     f4e:	ed 24       	eor	r14, r13
     f50:	2e 25       	eor	r18, r14
     f52:	27 87       	std	Z+15, r18	; 0x0f
     f54:	60 96       	adiw	r28, 0x10	; 16
     f56:	0f b6       	in	r0, 0x3f	; 63
     f58:	f8 94       	cli
     f5a:	de bf       	out	0x3e, r29	; 62
     f5c:	0f be       	out	0x3f, r0	; 63
     f5e:	cd bf       	out	0x3d, r28	; 61
     f60:	df 91       	pop	r29
     f62:	cf 91       	pop	r28
     f64:	1f 91       	pop	r17
     f66:	0f 91       	pop	r16
     f68:	ff 90       	pop	r15
     f6a:	ef 90       	pop	r14
     f6c:	df 90       	pop	r13
     f6e:	cf 90       	pop	r12
     f70:	bf 90       	pop	r11
     f72:	af 90       	pop	r10
     f74:	9f 90       	pop	r9
     f76:	08 95       	ret

00000f78 <aes_set_key>:
     f78:	7f 92       	push	r7
     f7a:	8f 92       	push	r8
     f7c:	9f 92       	push	r9
     f7e:	af 92       	push	r10
     f80:	bf 92       	push	r11
     f82:	cf 92       	push	r12
     f84:	df 92       	push	r13
     f86:	ef 92       	push	r14
     f88:	ff 92       	push	r15
     f8a:	0f 93       	push	r16
     f8c:	1f 93       	push	r17
     f8e:	cf 93       	push	r28
     f90:	df 93       	push	r29
     f92:	68 31       	cpi	r22, 0x18	; 24
     f94:	51 f0       	breq	.+20     	; 0xfaa <aes_set_key+0x32>
     f96:	60 32       	cpi	r22, 0x20	; 32
     f98:	41 f0       	breq	.+16     	; 0xfaa <aes_set_key+0x32>
     f9a:	60 31       	cpi	r22, 0x10	; 16
     f9c:	31 f0       	breq	.+12     	; 0xfaa <aes_set_key+0x32>
     f9e:	ea 01       	movw	r28, r20
     fa0:	c0 51       	subi	r28, 0x10	; 16
     fa2:	df 4f       	sbci	r29, 0xFF	; 255
     fa4:	18 82       	st	Y, r1
     fa6:	8f ef       	ldi	r24, 0xFF	; 255
     fa8:	9e c0       	rjmp	.+316    	; 0x10e6 <__EEPROM_REGION_LENGTH__+0xe6>
     faa:	ea 01       	movw	r28, r20
     fac:	e6 2e       	mov	r14, r22
     fae:	bc 01       	movw	r22, r24
     fb0:	4e 2d       	mov	r20, r14
     fb2:	50 e0       	ldi	r21, 0x00	; 0
     fb4:	ce 01       	movw	r24, r28
     fb6:	0e 94 1c 23 	call	0x4638	; 0x4638 <memcpy>
     fba:	8c e1       	ldi	r24, 0x1C	; 28
     fbc:	8e 0d       	add	r24, r14
     fbe:	b8 2e       	mov	r11, r24
     fc0:	bb 0c       	add	r11, r11
     fc2:	bb 0c       	add	r11, r11
     fc4:	fe 01       	movw	r30, r28
     fc6:	e0 51       	subi	r30, 0x10	; 16
     fc8:	ff 4f       	sbci	r31, 0xFF	; 255
     fca:	8b 2d       	mov	r24, r11
     fcc:	82 95       	swap	r24
     fce:	8f 70       	andi	r24, 0x0F	; 15
     fd0:	81 50       	subi	r24, 0x01	; 1
     fd2:	80 83       	st	Z, r24
     fd4:	fe 2c       	mov	r15, r14
     fd6:	cc 24       	eor	r12, r12
     fd8:	c3 94       	inc	r12
     fda:	81 c0       	rjmp	.+258    	; 0x10de <__EEPROM_REGION_LENGTH__+0xde>
     fdc:	0f 2d       	mov	r16, r15
     fde:	10 e0       	ldi	r17, 0x00	; 0
     fe0:	f8 01       	movw	r30, r16
     fe2:	34 97       	sbiw	r30, 0x04	; 4
     fe4:	ec 0f       	add	r30, r28
     fe6:	fd 1f       	adc	r31, r29
     fe8:	80 80       	ld	r8, Z
     fea:	f8 01       	movw	r30, r16
     fec:	33 97       	sbiw	r30, 0x03	; 3
     fee:	ec 0f       	add	r30, r28
     ff0:	fd 1f       	adc	r31, r29
     ff2:	90 80       	ld	r9, Z
     ff4:	f8 01       	movw	r30, r16
     ff6:	32 97       	sbiw	r30, 0x02	; 2
     ff8:	ec 0f       	add	r30, r28
     ffa:	fd 1f       	adc	r31, r29
     ffc:	a0 80       	ld	r10, Z
     ffe:	f8 01       	movw	r30, r16
    1000:	31 97       	sbiw	r30, 0x01	; 1
    1002:	ec 0f       	add	r30, r28
    1004:	fd 1f       	adc	r31, r29
    1006:	d0 80       	ld	r13, Z
    1008:	8f 2d       	mov	r24, r15
    100a:	6e 2d       	mov	r22, r14
    100c:	0e 94 1e 21 	call	0x423c	; 0x423c <__udivmodqi4>
    1010:	91 11       	cpse	r25, r1
    1012:	1f c0       	rjmp	.+62     	; 0x1052 <__EEPROM_REGION_LENGTH__+0x52>
    1014:	89 2d       	mov	r24, r9
    1016:	a3 dc       	rcall	.-1722   	; 0x95e <gf_inv>
    1018:	e5 dc       	rcall	.-1590   	; 0x9e4 <fwd_affine>
    101a:	7c 2c       	mov	r7, r12
    101c:	78 26       	eor	r7, r24
    101e:	8a 2d       	mov	r24, r10
    1020:	9e dc       	rcall	.-1732   	; 0x95e <gf_inv>
    1022:	e0 dc       	rcall	.-1600   	; 0x9e4 <fwd_affine>
    1024:	98 2e       	mov	r9, r24
    1026:	8d 2d       	mov	r24, r13
    1028:	9a dc       	rcall	.-1740   	; 0x95e <gf_inv>
    102a:	dc dc       	rcall	.-1608   	; 0x9e4 <fwd_affine>
    102c:	a8 2e       	mov	r10, r24
    102e:	88 2d       	mov	r24, r8
    1030:	96 dc       	rcall	.-1748   	; 0x95e <gf_inv>
    1032:	d8 dc       	rcall	.-1616   	; 0x9e4 <fwd_affine>
    1034:	d8 2e       	mov	r13, r24
    1036:	8c 2d       	mov	r24, r12
    1038:	90 e0       	ldi	r25, 0x00	; 0
    103a:	88 0f       	add	r24, r24
    103c:	99 1f       	adc	r25, r25
    103e:	cc 1c       	adc	r12, r12
    1040:	cc 24       	eor	r12, r12
    1042:	cc 1c       	adc	r12, r12
    1044:	9b e1       	ldi	r25, 0x1B	; 27
    1046:	c9 9e       	mul	r12, r25
    1048:	c0 2c       	mov	r12, r0
    104a:	11 24       	eor	r1, r1
    104c:	c8 26       	eor	r12, r24
    104e:	87 2c       	mov	r8, r7
    1050:	15 c0       	rjmp	.+42     	; 0x107c <__EEPROM_REGION_LENGTH__+0x7c>
    1052:	88 e1       	ldi	r24, 0x18	; 24
    1054:	8e 15       	cp	r24, r14
    1056:	90 f4       	brcc	.+36     	; 0x107c <__EEPROM_REGION_LENGTH__+0x7c>
    1058:	90 31       	cpi	r25, 0x10	; 16
    105a:	81 f4       	brne	.+32     	; 0x107c <__EEPROM_REGION_LENGTH__+0x7c>
    105c:	88 2d       	mov	r24, r8
    105e:	7f dc       	rcall	.-1794   	; 0x95e <gf_inv>
    1060:	c1 dc       	rcall	.-1662   	; 0x9e4 <fwd_affine>
    1062:	88 2e       	mov	r8, r24
    1064:	89 2d       	mov	r24, r9
    1066:	7b dc       	rcall	.-1802   	; 0x95e <gf_inv>
    1068:	bd dc       	rcall	.-1670   	; 0x9e4 <fwd_affine>
    106a:	98 2e       	mov	r9, r24
    106c:	8a 2d       	mov	r24, r10
    106e:	77 dc       	rcall	.-1810   	; 0x95e <gf_inv>
    1070:	b9 dc       	rcall	.-1678   	; 0x9e4 <fwd_affine>
    1072:	a8 2e       	mov	r10, r24
    1074:	8d 2d       	mov	r24, r13
    1076:	73 dc       	rcall	.-1818   	; 0x95e <gf_inv>
    1078:	b5 dc       	rcall	.-1686   	; 0x9e4 <fwd_affine>
    107a:	d8 2e       	mov	r13, r24
    107c:	2f 2d       	mov	r18, r15
    107e:	2e 19       	sub	r18, r14
    1080:	30 e0       	ldi	r19, 0x00	; 0
    1082:	fe 01       	movw	r30, r28
    1084:	e2 0f       	add	r30, r18
    1086:	f3 1f       	adc	r31, r19
    1088:	80 81       	ld	r24, Z
    108a:	fe 01       	movw	r30, r28
    108c:	e0 0f       	add	r30, r16
    108e:	f1 1f       	adc	r31, r17
    1090:	88 25       	eor	r24, r8
    1092:	80 83       	st	Z, r24
    1094:	f8 01       	movw	r30, r16
    1096:	31 96       	adiw	r30, 0x01	; 1
    1098:	d9 01       	movw	r26, r18
    109a:	11 96       	adiw	r26, 0x01	; 1
    109c:	ac 0f       	add	r26, r28
    109e:	bd 1f       	adc	r27, r29
    10a0:	8c 91       	ld	r24, X
    10a2:	ec 0f       	add	r30, r28
    10a4:	fd 1f       	adc	r31, r29
    10a6:	89 25       	eor	r24, r9
    10a8:	80 83       	st	Z, r24
    10aa:	f8 01       	movw	r30, r16
    10ac:	32 96       	adiw	r30, 0x02	; 2
    10ae:	d9 01       	movw	r26, r18
    10b0:	12 96       	adiw	r26, 0x02	; 2
    10b2:	ac 0f       	add	r26, r28
    10b4:	bd 1f       	adc	r27, r29
    10b6:	8c 91       	ld	r24, X
    10b8:	ec 0f       	add	r30, r28
    10ba:	fd 1f       	adc	r31, r29
    10bc:	8a 25       	eor	r24, r10
    10be:	80 83       	st	Z, r24
    10c0:	0d 5f       	subi	r16, 0xFD	; 253
    10c2:	1f 4f       	sbci	r17, 0xFF	; 255
    10c4:	2d 5f       	subi	r18, 0xFD	; 253
    10c6:	3f 4f       	sbci	r19, 0xFF	; 255
    10c8:	fe 01       	movw	r30, r28
    10ca:	e2 0f       	add	r30, r18
    10cc:	f3 1f       	adc	r31, r19
    10ce:	80 81       	ld	r24, Z
    10d0:	fe 01       	movw	r30, r28
    10d2:	e0 0f       	add	r30, r16
    10d4:	f1 1f       	adc	r31, r17
    10d6:	d8 26       	eor	r13, r24
    10d8:	d0 82       	st	Z, r13
    10da:	84 e0       	ldi	r24, 0x04	; 4
    10dc:	f8 0e       	add	r15, r24
    10de:	fb 14       	cp	r15, r11
    10e0:	08 f4       	brcc	.+2      	; 0x10e4 <__EEPROM_REGION_LENGTH__+0xe4>
    10e2:	7c cf       	rjmp	.-264    	; 0xfdc <aes_set_key+0x64>
    10e4:	80 e0       	ldi	r24, 0x00	; 0
    10e6:	df 91       	pop	r29
    10e8:	cf 91       	pop	r28
    10ea:	1f 91       	pop	r17
    10ec:	0f 91       	pop	r16
    10ee:	ff 90       	pop	r15
    10f0:	ef 90       	pop	r14
    10f2:	df 90       	pop	r13
    10f4:	cf 90       	pop	r12
    10f6:	bf 90       	pop	r11
    10f8:	af 90       	pop	r10
    10fa:	9f 90       	pop	r9
    10fc:	8f 90       	pop	r8
    10fe:	7f 90       	pop	r7
    1100:	08 95       	ret

00001102 <aes_encrypt>:
    1102:	af 92       	push	r10
    1104:	bf 92       	push	r11
    1106:	cf 92       	push	r12
    1108:	df 92       	push	r13
    110a:	ef 92       	push	r14
    110c:	ff 92       	push	r15
    110e:	1f 93       	push	r17
    1110:	cf 93       	push	r28
    1112:	df 93       	push	r29
    1114:	cd b7       	in	r28, 0x3d	; 61
    1116:	de b7       	in	r29, 0x3e	; 62
    1118:	60 97       	sbiw	r28, 0x10	; 16
    111a:	0f b6       	in	r0, 0x3f	; 63
    111c:	f8 94       	cli
    111e:	de bf       	out	0x3e, r29	; 62
    1120:	0f be       	out	0x3f, r0	; 63
    1122:	cd bf       	out	0x3d, r28	; 61
    1124:	9c 01       	movw	r18, r24
    1126:	fa 01       	movw	r30, r20
    1128:	e0 51       	subi	r30, 0x10	; 16
    112a:	ff 4f       	sbci	r31, 0xFF	; 255
    112c:	90 81       	ld	r25, Z
    112e:	99 23       	and	r25, r25
    1130:	61 f1       	breq	.+88     	; 0x118a <aes_encrypt+0x88>
    1132:	7a 01       	movw	r14, r20
    1134:	5b 01       	movw	r10, r22
    1136:	b9 01       	movw	r22, r18
    1138:	6a 01       	movw	r12, r20
    113a:	ce 01       	movw	r24, r28
    113c:	01 96       	adiw	r24, 0x01	; 1
    113e:	e3 dc       	rcall	.-1594   	; 0xb06 <copy_and_key>
    1140:	11 e0       	ldi	r17, 0x01	; 1
    1142:	0d c0       	rjmp	.+26     	; 0x115e <aes_encrypt+0x5c>
    1144:	ce 01       	movw	r24, r28
    1146:	01 96       	adiw	r24, 0x01	; 1
    1148:	91 dd       	rcall	.-1246   	; 0xc6c <mix_sub_columns>
    114a:	b6 01       	movw	r22, r12
    114c:	80 e1       	ldi	r24, 0x10	; 16
    114e:	18 9f       	mul	r17, r24
    1150:	60 0d       	add	r22, r0
    1152:	71 1d       	adc	r23, r1
    1154:	11 24       	eor	r1, r1
    1156:	ce 01       	movw	r24, r28
    1158:	01 96       	adiw	r24, 0x01	; 1
    115a:	3a dd       	rcall	.-1420   	; 0xbd0 <add_round_key>
    115c:	1f 5f       	subi	r17, 0xFF	; 255
    115e:	f7 01       	movw	r30, r14
    1160:	e0 51       	subi	r30, 0x10	; 16
    1162:	ff 4f       	sbci	r31, 0xFF	; 255
    1164:	80 81       	ld	r24, Z
    1166:	18 17       	cp	r17, r24
    1168:	68 f3       	brcs	.-38     	; 0x1144 <aes_encrypt+0x42>
    116a:	ce 01       	movw	r24, r28
    116c:	01 96       	adiw	r24, 0x01	; 1
    116e:	32 dd       	rcall	.-1436   	; 0xbd4 <shift_sub_rows>
    1170:	a7 01       	movw	r20, r14
    1172:	80 e1       	ldi	r24, 0x10	; 16
    1174:	18 9f       	mul	r17, r24
    1176:	40 0d       	add	r20, r0
    1178:	51 1d       	adc	r21, r1
    117a:	11 24       	eor	r1, r1
    117c:	be 01       	movw	r22, r28
    117e:	6f 5f       	subi	r22, 0xFF	; 255
    1180:	7f 4f       	sbci	r23, 0xFF	; 255
    1182:	c5 01       	movw	r24, r10
    1184:	c0 dc       	rcall	.-1664   	; 0xb06 <copy_and_key>
    1186:	80 e0       	ldi	r24, 0x00	; 0
    1188:	01 c0       	rjmp	.+2      	; 0x118c <aes_encrypt+0x8a>
    118a:	8f ef       	ldi	r24, 0xFF	; 255
    118c:	60 96       	adiw	r28, 0x10	; 16
    118e:	0f b6       	in	r0, 0x3f	; 63
    1190:	f8 94       	cli
    1192:	de bf       	out	0x3e, r29	; 62
    1194:	0f be       	out	0x3f, r0	; 63
    1196:	cd bf       	out	0x3d, r28	; 61
    1198:	df 91       	pop	r29
    119a:	cf 91       	pop	r28
    119c:	1f 91       	pop	r17
    119e:	ff 90       	pop	r15
    11a0:	ef 90       	pop	r14
    11a2:	df 90       	pop	r13
    11a4:	cf 90       	pop	r12
    11a6:	bf 90       	pop	r11
    11a8:	af 90       	pop	r10
    11aa:	08 95       	ret

000011ac <aes_cmac_init>:
    11ac:	fc 01       	movw	r30, r24
    11ae:	ef 50       	subi	r30, 0x0F	; 15
    11b0:	ff 4f       	sbci	r31, 0xFF	; 255
    11b2:	20 e1       	ldi	r18, 0x10	; 16
    11b4:	df 01       	movw	r26, r30
    11b6:	1d 92       	st	X+, r1
    11b8:	2a 95       	dec	r18
    11ba:	e9 f7       	brne	.-6      	; 0x11b6 <aes_cmac_init+0xa>
    11bc:	b0 96       	adiw	r30, 0x20	; 32
    11be:	11 82       	std	Z+1, r1	; 0x01
    11c0:	10 82       	st	Z, r1
    11c2:	20 ef       	ldi	r18, 0xF0	; 240
    11c4:	fc 01       	movw	r30, r24
    11c6:	11 92       	st	Z+, r1
    11c8:	2a 95       	dec	r18
    11ca:	e9 f7       	brne	.-6      	; 0x11c6 <aes_cmac_init+0x1a>
    11cc:	08 95       	ret

000011ce <aes_cmac_set_key>:
    11ce:	ac 01       	movw	r20, r24
    11d0:	cb 01       	movw	r24, r22
    11d2:	60 e1       	ldi	r22, 0x10	; 16
    11d4:	d1 ce       	rjmp	.-606    	; 0xf78 <aes_set_key>
    11d6:	08 95       	ret

000011d8 <aes_cmac_update>:
    11d8:	af 92       	push	r10
    11da:	bf 92       	push	r11
    11dc:	cf 92       	push	r12
    11de:	df 92       	push	r13
    11e0:	ef 92       	push	r14
    11e2:	ff 92       	push	r15
    11e4:	0f 93       	push	r16
    11e6:	1f 93       	push	r17
    11e8:	cf 93       	push	r28
    11ea:	df 93       	push	r29
    11ec:	cd b7       	in	r28, 0x3d	; 61
    11ee:	de b7       	in	r29, 0x3e	; 62
    11f0:	60 97       	sbiw	r28, 0x10	; 16
    11f2:	0f b6       	in	r0, 0x3f	; 63
    11f4:	f8 94       	cli
    11f6:	de bf       	out	0x3e, r29	; 62
    11f8:	0f be       	out	0x3f, r0	; 63
    11fa:	cd bf       	out	0x3d, r28	; 61
    11fc:	8c 01       	movw	r16, r24
    11fe:	7b 01       	movw	r14, r22
    1200:	6a 01       	movw	r12, r20
    1202:	fc 01       	movw	r30, r24
    1204:	ef 5e       	subi	r30, 0xEF	; 239
    1206:	fe 4f       	sbci	r31, 0xFE	; 254
    1208:	80 81       	ld	r24, Z
    120a:	91 81       	ldd	r25, Z+1	; 0x01
    120c:	00 97       	sbiw	r24, 0x00	; 0
    120e:	09 f4       	brne	.+2      	; 0x1212 <aes_cmac_update+0x3a>
    1210:	75 c0       	rjmp	.+234    	; 0x12fc <aes_cmac_update+0x124>
    1212:	20 e1       	ldi	r18, 0x10	; 16
    1214:	30 e0       	ldi	r19, 0x00	; 0
    1216:	28 1b       	sub	r18, r24
    1218:	39 0b       	sbc	r19, r25
    121a:	5a 01       	movw	r10, r20
    121c:	24 17       	cp	r18, r20
    121e:	35 07       	cpc	r19, r21
    1220:	08 f4       	brcc	.+2      	; 0x1224 <aes_cmac_update+0x4c>
    1222:	59 01       	movw	r10, r18
    1224:	a5 01       	movw	r20, r10
    1226:	b7 01       	movw	r22, r14
    1228:	98 01       	movw	r18, r16
    122a:	2f 5f       	subi	r18, 0xFF	; 255
    122c:	3e 4f       	sbci	r19, 0xFE	; 254
    122e:	82 0f       	add	r24, r18
    1230:	93 1f       	adc	r25, r19
    1232:	0e 94 1c 23 	call	0x4638	; 0x4638 <memcpy>
    1236:	f8 01       	movw	r30, r16
    1238:	ef 5e       	subi	r30, 0xEF	; 239
    123a:	fe 4f       	sbci	r31, 0xFE	; 254
    123c:	80 81       	ld	r24, Z
    123e:	91 81       	ldd	r25, Z+1	; 0x01
    1240:	8a 0d       	add	r24, r10
    1242:	9b 1d       	adc	r25, r11
    1244:	91 83       	std	Z+1, r25	; 0x01
    1246:	80 83       	st	Z, r24
    1248:	40 97       	sbiw	r24, 0x10	; 16
    124a:	08 f4       	brcc	.+2      	; 0x124e <aes_cmac_update+0x76>
    124c:	67 c0       	rjmp	.+206    	; 0x131c <aes_cmac_update+0x144>
    124e:	ca 14       	cp	r12, r10
    1250:	db 04       	cpc	r13, r11
    1252:	09 f4       	brne	.+2      	; 0x1256 <aes_cmac_update+0x7e>
    1254:	63 c0       	rjmp	.+198    	; 0x131c <aes_cmac_update+0x144>
    1256:	20 e0       	ldi	r18, 0x00	; 0
    1258:	30 e0       	ldi	r19, 0x00	; 0
    125a:	0f c0       	rjmp	.+30     	; 0x127a <aes_cmac_update+0xa2>
    125c:	c8 01       	movw	r24, r16
    125e:	82 0f       	add	r24, r18
    1260:	93 1f       	adc	r25, r19
    1262:	fc 01       	movw	r30, r24
    1264:	ef 50       	subi	r30, 0x0F	; 15
    1266:	ff 4f       	sbci	r31, 0xFF	; 255
    1268:	40 81       	ld	r20, Z
    126a:	dc 01       	movw	r26, r24
    126c:	af 5f       	subi	r26, 0xFF	; 255
    126e:	be 4f       	sbci	r27, 0xFE	; 254
    1270:	8c 91       	ld	r24, X
    1272:	84 27       	eor	r24, r20
    1274:	80 83       	st	Z, r24
    1276:	2f 5f       	subi	r18, 0xFF	; 255
    1278:	3f 4f       	sbci	r19, 0xFF	; 255
    127a:	20 31       	cpi	r18, 0x10	; 16
    127c:	31 05       	cpc	r19, r1
    127e:	74 f3       	brlt	.-36     	; 0x125c <aes_cmac_update+0x84>
    1280:	a8 01       	movw	r20, r16
    1282:	c8 01       	movw	r24, r16
    1284:	8f 50       	subi	r24, 0x0F	; 15
    1286:	9f 4f       	sbci	r25, 0xFF	; 255
    1288:	bc 01       	movw	r22, r24
    128a:	3b df       	rcall	.-394    	; 0x1102 <aes_encrypt>
    128c:	ea 0c       	add	r14, r10
    128e:	fb 1c       	adc	r15, r11
    1290:	ca 18       	sub	r12, r10
    1292:	db 08       	sbc	r13, r11
    1294:	33 c0       	rjmp	.+102    	; 0x12fc <aes_cmac_update+0x124>
    1296:	f8 01       	movw	r30, r16
    1298:	e8 0f       	add	r30, r24
    129a:	f9 1f       	adc	r31, r25
    129c:	ef 50       	subi	r30, 0x0F	; 15
    129e:	ff 4f       	sbci	r31, 0xFF	; 255
    12a0:	30 81       	ld	r19, Z
    12a2:	d7 01       	movw	r26, r14
    12a4:	a8 0f       	add	r26, r24
    12a6:	b9 1f       	adc	r27, r25
    12a8:	2c 91       	ld	r18, X
    12aa:	23 27       	eor	r18, r19
    12ac:	20 83       	st	Z, r18
    12ae:	01 96       	adiw	r24, 0x01	; 1
    12b0:	02 c0       	rjmp	.+4      	; 0x12b6 <aes_cmac_update+0xde>
    12b2:	80 e0       	ldi	r24, 0x00	; 0
    12b4:	90 e0       	ldi	r25, 0x00	; 0
    12b6:	80 31       	cpi	r24, 0x10	; 16
    12b8:	91 05       	cpc	r25, r1
    12ba:	6c f3       	brlt	.-38     	; 0x1296 <aes_cmac_update+0xbe>
    12bc:	80 e1       	ldi	r24, 0x10	; 16
    12be:	58 01       	movw	r10, r16
    12c0:	91 ef       	ldi	r25, 0xF1	; 241
    12c2:	a9 0e       	add	r10, r25
    12c4:	b1 1c       	adc	r11, r1
    12c6:	f5 01       	movw	r30, r10
    12c8:	de 01       	movw	r26, r28
    12ca:	11 96       	adiw	r26, 0x01	; 1
    12cc:	01 90       	ld	r0, Z+
    12ce:	0d 92       	st	X+, r0
    12d0:	8a 95       	dec	r24
    12d2:	e1 f7       	brne	.-8      	; 0x12cc <aes_cmac_update+0xf4>
    12d4:	a8 01       	movw	r20, r16
    12d6:	be 01       	movw	r22, r28
    12d8:	6f 5f       	subi	r22, 0xFF	; 255
    12da:	7f 4f       	sbci	r23, 0xFF	; 255
    12dc:	cb 01       	movw	r24, r22
    12de:	11 df       	rcall	.-478    	; 0x1102 <aes_encrypt>
    12e0:	80 e1       	ldi	r24, 0x10	; 16
    12e2:	fe 01       	movw	r30, r28
    12e4:	31 96       	adiw	r30, 0x01	; 1
    12e6:	d5 01       	movw	r26, r10
    12e8:	01 90       	ld	r0, Z+
    12ea:	0d 92       	st	X+, r0
    12ec:	8a 95       	dec	r24
    12ee:	e1 f7       	brne	.-8      	; 0x12e8 <aes_cmac_update+0x110>
    12f0:	80 e1       	ldi	r24, 0x10	; 16
    12f2:	e8 0e       	add	r14, r24
    12f4:	f1 1c       	adc	r15, r1
    12f6:	90 e1       	ldi	r25, 0x10	; 16
    12f8:	c9 1a       	sub	r12, r25
    12fa:	d1 08       	sbc	r13, r1
    12fc:	81 e1       	ldi	r24, 0x11	; 17
    12fe:	c8 16       	cp	r12, r24
    1300:	d1 04       	cpc	r13, r1
    1302:	b8 f6       	brcc	.-82     	; 0x12b2 <aes_cmac_update+0xda>
    1304:	a6 01       	movw	r20, r12
    1306:	b7 01       	movw	r22, r14
    1308:	c8 01       	movw	r24, r16
    130a:	8f 5f       	subi	r24, 0xFF	; 255
    130c:	9e 4f       	sbci	r25, 0xFE	; 254
    130e:	0e 94 1c 23 	call	0x4638	; 0x4638 <memcpy>
    1312:	f8 01       	movw	r30, r16
    1314:	ef 5e       	subi	r30, 0xEF	; 239
    1316:	fe 4f       	sbci	r31, 0xFE	; 254
    1318:	d1 82       	std	Z+1, r13	; 0x01
    131a:	c0 82       	st	Z, r12
    131c:	60 96       	adiw	r28, 0x10	; 16
    131e:	0f b6       	in	r0, 0x3f	; 63
    1320:	f8 94       	cli
    1322:	de bf       	out	0x3e, r29	; 62
    1324:	0f be       	out	0x3f, r0	; 63
    1326:	cd bf       	out	0x3d, r28	; 61
    1328:	df 91       	pop	r29
    132a:	cf 91       	pop	r28
    132c:	1f 91       	pop	r17
    132e:	0f 91       	pop	r16
    1330:	ff 90       	pop	r15
    1332:	ef 90       	pop	r14
    1334:	df 90       	pop	r13
    1336:	cf 90       	pop	r12
    1338:	bf 90       	pop	r11
    133a:	af 90       	pop	r10
    133c:	08 95       	ret

0000133e <aes_cmac_final>:
    133e:	ef 92       	push	r14
    1340:	ff 92       	push	r15
    1342:	0f 93       	push	r16
    1344:	1f 93       	push	r17
    1346:	cf 93       	push	r28
    1348:	df 93       	push	r29
    134a:	cd b7       	in	r28, 0x3d	; 61
    134c:	de b7       	in	r29, 0x3e	; 62
    134e:	a0 97       	sbiw	r28, 0x20	; 32
    1350:	0f b6       	in	r0, 0x3f	; 63
    1352:	f8 94       	cli
    1354:	de bf       	out	0x3e, r29	; 62
    1356:	0f be       	out	0x3f, r0	; 63
    1358:	cd bf       	out	0x3d, r28	; 61
    135a:	7c 01       	movw	r14, r24
    135c:	8b 01       	movw	r16, r22
    135e:	ce 01       	movw	r24, r28
    1360:	01 96       	adiw	r24, 0x01	; 1
    1362:	20 e1       	ldi	r18, 0x10	; 16
    1364:	dc 01       	movw	r26, r24
    1366:	1d 92       	st	X+, r1
    1368:	2a 95       	dec	r18
    136a:	e9 f7       	brne	.-6      	; 0x1366 <aes_cmac_final+0x28>
    136c:	ab 01       	movw	r20, r22
    136e:	bc 01       	movw	r22, r24
    1370:	c8 de       	rcall	.-624    	; 0x1102 <aes_encrypt>
    1372:	89 81       	ldd	r24, Y+1	; 0x01
    1374:	88 23       	and	r24, r24
    1376:	e4 f0       	brlt	.+56     	; 0x13b0 <aes_cmac_final+0x72>
    1378:	20 e0       	ldi	r18, 0x00	; 0
    137a:	30 e0       	ldi	r19, 0x00	; 0
    137c:	3d c0       	rjmp	.+122    	; 0x13f8 <aes_cmac_final+0xba>
    137e:	a1 e0       	ldi	r26, 0x01	; 1
    1380:	b0 e0       	ldi	r27, 0x00	; 0
    1382:	ac 0f       	add	r26, r28
    1384:	bd 1f       	adc	r27, r29
    1386:	a2 0f       	add	r26, r18
    1388:	b3 1f       	adc	r27, r19
    138a:	8c 91       	ld	r24, X
    138c:	90 e0       	ldi	r25, 0x00	; 0
    138e:	88 0f       	add	r24, r24
    1390:	99 1f       	adc	r25, r25
    1392:	2f 5f       	subi	r18, 0xFF	; 255
    1394:	3f 4f       	sbci	r19, 0xFF	; 255
    1396:	e1 e0       	ldi	r30, 0x01	; 1
    1398:	f0 e0       	ldi	r31, 0x00	; 0
    139a:	ec 0f       	add	r30, r28
    139c:	fd 1f       	adc	r31, r29
    139e:	e2 0f       	add	r30, r18
    13a0:	f3 1f       	adc	r31, r19
    13a2:	90 81       	ld	r25, Z
    13a4:	99 1f       	adc	r25, r25
    13a6:	99 27       	eor	r25, r25
    13a8:	99 1f       	adc	r25, r25
    13aa:	89 2b       	or	r24, r25
    13ac:	8c 93       	st	X, r24
    13ae:	02 c0       	rjmp	.+4      	; 0x13b4 <aes_cmac_final+0x76>
    13b0:	20 e0       	ldi	r18, 0x00	; 0
    13b2:	30 e0       	ldi	r19, 0x00	; 0
    13b4:	2f 30       	cpi	r18, 0x0F	; 15
    13b6:	31 05       	cpc	r19, r1
    13b8:	14 f3       	brlt	.-60     	; 0x137e <aes_cmac_final+0x40>
    13ba:	88 89       	ldd	r24, Y+16	; 0x10
    13bc:	98 2f       	mov	r25, r24
    13be:	99 0f       	add	r25, r25
    13c0:	87 e8       	ldi	r24, 0x87	; 135
    13c2:	89 27       	eor	r24, r25
    13c4:	88 8b       	std	Y+16, r24	; 0x10
    13c6:	1e c0       	rjmp	.+60     	; 0x1404 <aes_cmac_final+0xc6>
    13c8:	a1 e0       	ldi	r26, 0x01	; 1
    13ca:	b0 e0       	ldi	r27, 0x00	; 0
    13cc:	ac 0f       	add	r26, r28
    13ce:	bd 1f       	adc	r27, r29
    13d0:	a2 0f       	add	r26, r18
    13d2:	b3 1f       	adc	r27, r19
    13d4:	8c 91       	ld	r24, X
    13d6:	90 e0       	ldi	r25, 0x00	; 0
    13d8:	88 0f       	add	r24, r24
    13da:	99 1f       	adc	r25, r25
    13dc:	2f 5f       	subi	r18, 0xFF	; 255
    13de:	3f 4f       	sbci	r19, 0xFF	; 255
    13e0:	e1 e0       	ldi	r30, 0x01	; 1
    13e2:	f0 e0       	ldi	r31, 0x00	; 0
    13e4:	ec 0f       	add	r30, r28
    13e6:	fd 1f       	adc	r31, r29
    13e8:	e2 0f       	add	r30, r18
    13ea:	f3 1f       	adc	r31, r19
    13ec:	90 81       	ld	r25, Z
    13ee:	99 1f       	adc	r25, r25
    13f0:	99 27       	eor	r25, r25
    13f2:	99 1f       	adc	r25, r25
    13f4:	89 2b       	or	r24, r25
    13f6:	8c 93       	st	X, r24
    13f8:	2f 30       	cpi	r18, 0x0F	; 15
    13fa:	31 05       	cpc	r19, r1
    13fc:	2c f3       	brlt	.-54     	; 0x13c8 <aes_cmac_final+0x8a>
    13fe:	88 89       	ldd	r24, Y+16	; 0x10
    1400:	88 0f       	add	r24, r24
    1402:	88 8b       	std	Y+16, r24	; 0x10
    1404:	f8 01       	movw	r30, r16
    1406:	ef 5e       	subi	r30, 0xEF	; 239
    1408:	fe 4f       	sbci	r31, 0xFE	; 254
    140a:	80 81       	ld	r24, Z
    140c:	91 81       	ldd	r25, Z+1	; 0x01
    140e:	40 97       	sbiw	r24, 0x10	; 16
    1410:	c1 f4       	brne	.+48     	; 0x1442 <aes_cmac_final+0x104>
    1412:	11 c0       	rjmp	.+34     	; 0x1436 <aes_cmac_final+0xf8>
    1414:	f8 01       	movw	r30, r16
    1416:	e8 0f       	add	r30, r24
    1418:	f9 1f       	adc	r31, r25
    141a:	ef 5f       	subi	r30, 0xFF	; 255
    141c:	fe 4f       	sbci	r31, 0xFE	; 254
    141e:	30 81       	ld	r19, Z
    1420:	a1 e0       	ldi	r26, 0x01	; 1
    1422:	b0 e0       	ldi	r27, 0x00	; 0
    1424:	ac 0f       	add	r26, r28
    1426:	bd 1f       	adc	r27, r29
    1428:	a8 0f       	add	r26, r24
    142a:	b9 1f       	adc	r27, r25
    142c:	2c 91       	ld	r18, X
    142e:	23 27       	eor	r18, r19
    1430:	20 83       	st	Z, r18
    1432:	01 96       	adiw	r24, 0x01	; 1
    1434:	02 c0       	rjmp	.+4      	; 0x143a <aes_cmac_final+0xfc>
    1436:	80 e0       	ldi	r24, 0x00	; 0
    1438:	90 e0       	ldi	r25, 0x00	; 0
    143a:	80 31       	cpi	r24, 0x10	; 16
    143c:	91 05       	cpc	r25, r1
    143e:	54 f3       	brlt	.-44     	; 0x1414 <aes_cmac_final+0xd6>
    1440:	7d c0       	rjmp	.+250    	; 0x153c <aes_cmac_final+0x1fe>
    1442:	89 81       	ldd	r24, Y+1	; 0x01
    1444:	88 23       	and	r24, r24
    1446:	e4 f0       	brlt	.+56     	; 0x1480 <aes_cmac_final+0x142>
    1448:	20 e0       	ldi	r18, 0x00	; 0
    144a:	30 e0       	ldi	r19, 0x00	; 0
    144c:	3d c0       	rjmp	.+122    	; 0x14c8 <aes_cmac_final+0x18a>
    144e:	a1 e0       	ldi	r26, 0x01	; 1
    1450:	b0 e0       	ldi	r27, 0x00	; 0
    1452:	ac 0f       	add	r26, r28
    1454:	bd 1f       	adc	r27, r29
    1456:	a2 0f       	add	r26, r18
    1458:	b3 1f       	adc	r27, r19
    145a:	8c 91       	ld	r24, X
    145c:	90 e0       	ldi	r25, 0x00	; 0
    145e:	88 0f       	add	r24, r24
    1460:	99 1f       	adc	r25, r25
    1462:	2f 5f       	subi	r18, 0xFF	; 255
    1464:	3f 4f       	sbci	r19, 0xFF	; 255
    1466:	e1 e0       	ldi	r30, 0x01	; 1
    1468:	f0 e0       	ldi	r31, 0x00	; 0
    146a:	ec 0f       	add	r30, r28
    146c:	fd 1f       	adc	r31, r29
    146e:	e2 0f       	add	r30, r18
    1470:	f3 1f       	adc	r31, r19
    1472:	90 81       	ld	r25, Z
    1474:	99 1f       	adc	r25, r25
    1476:	99 27       	eor	r25, r25
    1478:	99 1f       	adc	r25, r25
    147a:	89 2b       	or	r24, r25
    147c:	8c 93       	st	X, r24
    147e:	02 c0       	rjmp	.+4      	; 0x1484 <aes_cmac_final+0x146>
    1480:	20 e0       	ldi	r18, 0x00	; 0
    1482:	30 e0       	ldi	r19, 0x00	; 0
    1484:	2f 30       	cpi	r18, 0x0F	; 15
    1486:	31 05       	cpc	r19, r1
    1488:	14 f3       	brlt	.-60     	; 0x144e <aes_cmac_final+0x110>
    148a:	88 89       	ldd	r24, Y+16	; 0x10
    148c:	98 2f       	mov	r25, r24
    148e:	99 0f       	add	r25, r25
    1490:	87 e8       	ldi	r24, 0x87	; 135
    1492:	89 27       	eor	r24, r25
    1494:	88 8b       	std	Y+16, r24	; 0x10
    1496:	1e c0       	rjmp	.+60     	; 0x14d4 <aes_cmac_final+0x196>
    1498:	a1 e0       	ldi	r26, 0x01	; 1
    149a:	b0 e0       	ldi	r27, 0x00	; 0
    149c:	ac 0f       	add	r26, r28
    149e:	bd 1f       	adc	r27, r29
    14a0:	a2 0f       	add	r26, r18
    14a2:	b3 1f       	adc	r27, r19
    14a4:	8c 91       	ld	r24, X
    14a6:	90 e0       	ldi	r25, 0x00	; 0
    14a8:	88 0f       	add	r24, r24
    14aa:	99 1f       	adc	r25, r25
    14ac:	2f 5f       	subi	r18, 0xFF	; 255
    14ae:	3f 4f       	sbci	r19, 0xFF	; 255
    14b0:	e1 e0       	ldi	r30, 0x01	; 1
    14b2:	f0 e0       	ldi	r31, 0x00	; 0
    14b4:	ec 0f       	add	r30, r28
    14b6:	fd 1f       	adc	r31, r29
    14b8:	e2 0f       	add	r30, r18
    14ba:	f3 1f       	adc	r31, r19
    14bc:	90 81       	ld	r25, Z
    14be:	99 1f       	adc	r25, r25
    14c0:	99 27       	eor	r25, r25
    14c2:	99 1f       	adc	r25, r25
    14c4:	89 2b       	or	r24, r25
    14c6:	8c 93       	st	X, r24
    14c8:	2f 30       	cpi	r18, 0x0F	; 15
    14ca:	31 05       	cpc	r19, r1
    14cc:	2c f3       	brlt	.-54     	; 0x1498 <aes_cmac_final+0x15a>
    14ce:	88 89       	ldd	r24, Y+16	; 0x10
    14d0:	88 0f       	add	r24, r24
    14d2:	88 8b       	std	Y+16, r24	; 0x10
    14d4:	f8 01       	movw	r30, r16
    14d6:	ef 5e       	subi	r30, 0xEF	; 239
    14d8:	fe 4f       	sbci	r31, 0xFE	; 254
    14da:	01 90       	ld	r0, Z+
    14dc:	f0 81       	ld	r31, Z
    14de:	e0 2d       	mov	r30, r0
    14e0:	e0 0f       	add	r30, r16
    14e2:	f1 1f       	adc	r31, r17
    14e4:	ef 5f       	subi	r30, 0xFF	; 255
    14e6:	fe 4f       	sbci	r31, 0xFE	; 254
    14e8:	80 e8       	ldi	r24, 0x80	; 128
    14ea:	80 83       	st	Z, r24
    14ec:	06 c0       	rjmp	.+12     	; 0x14fa <aes_cmac_final+0x1bc>
    14ee:	80 0f       	add	r24, r16
    14f0:	91 1f       	adc	r25, r17
    14f2:	fc 01       	movw	r30, r24
    14f4:	ef 5f       	subi	r30, 0xFF	; 255
    14f6:	fe 4f       	sbci	r31, 0xFE	; 254
    14f8:	10 82       	st	Z, r1
    14fa:	f8 01       	movw	r30, r16
    14fc:	ef 5e       	subi	r30, 0xEF	; 239
    14fe:	fe 4f       	sbci	r31, 0xFE	; 254
    1500:	80 81       	ld	r24, Z
    1502:	91 81       	ldd	r25, Z+1	; 0x01
    1504:	01 96       	adiw	r24, 0x01	; 1
    1506:	91 83       	std	Z+1, r25	; 0x01
    1508:	80 83       	st	Z, r24
    150a:	80 31       	cpi	r24, 0x10	; 16
    150c:	91 05       	cpc	r25, r1
    150e:	78 f3       	brcs	.-34     	; 0x14ee <aes_cmac_final+0x1b0>
    1510:	80 e0       	ldi	r24, 0x00	; 0
    1512:	90 e0       	ldi	r25, 0x00	; 0
    1514:	10 c0       	rjmp	.+32     	; 0x1536 <aes_cmac_final+0x1f8>
    1516:	f8 01       	movw	r30, r16
    1518:	e8 0f       	add	r30, r24
    151a:	f9 1f       	adc	r31, r25
    151c:	ef 5f       	subi	r30, 0xFF	; 255
    151e:	fe 4f       	sbci	r31, 0xFE	; 254
    1520:	30 81       	ld	r19, Z
    1522:	a1 e0       	ldi	r26, 0x01	; 1
    1524:	b0 e0       	ldi	r27, 0x00	; 0
    1526:	ac 0f       	add	r26, r28
    1528:	bd 1f       	adc	r27, r29
    152a:	a8 0f       	add	r26, r24
    152c:	b9 1f       	adc	r27, r25
    152e:	2c 91       	ld	r18, X
    1530:	23 27       	eor	r18, r19
    1532:	20 83       	st	Z, r18
    1534:	01 96       	adiw	r24, 0x01	; 1
    1536:	80 31       	cpi	r24, 0x10	; 16
    1538:	91 05       	cpc	r25, r1
    153a:	6c f3       	brlt	.-38     	; 0x1516 <aes_cmac_final+0x1d8>
    153c:	20 e0       	ldi	r18, 0x00	; 0
    153e:	30 e0       	ldi	r19, 0x00	; 0
    1540:	0f c0       	rjmp	.+30     	; 0x1560 <aes_cmac_final+0x222>
    1542:	c8 01       	movw	r24, r16
    1544:	82 0f       	add	r24, r18
    1546:	93 1f       	adc	r25, r19
    1548:	fc 01       	movw	r30, r24
    154a:	ef 50       	subi	r30, 0x0F	; 15
    154c:	ff 4f       	sbci	r31, 0xFF	; 255
    154e:	40 81       	ld	r20, Z
    1550:	dc 01       	movw	r26, r24
    1552:	af 5f       	subi	r26, 0xFF	; 255
    1554:	be 4f       	sbci	r27, 0xFE	; 254
    1556:	8c 91       	ld	r24, X
    1558:	84 27       	eor	r24, r20
    155a:	80 83       	st	Z, r24
    155c:	2f 5f       	subi	r18, 0xFF	; 255
    155e:	3f 4f       	sbci	r19, 0xFF	; 255
    1560:	20 31       	cpi	r18, 0x10	; 16
    1562:	31 05       	cpc	r19, r1
    1564:	74 f3       	brlt	.-36     	; 0x1542 <aes_cmac_final+0x204>
    1566:	f8 01       	movw	r30, r16
    1568:	ef 50       	subi	r30, 0x0F	; 15
    156a:	ff 4f       	sbci	r31, 0xFF	; 255
    156c:	80 e1       	ldi	r24, 0x10	; 16
    156e:	de 01       	movw	r26, r28
    1570:	51 96       	adiw	r26, 0x11	; 17
    1572:	01 90       	ld	r0, Z+
    1574:	0d 92       	st	X+, r0
    1576:	8a 95       	dec	r24
    1578:	e1 f7       	brne	.-8      	; 0x1572 <aes_cmac_final+0x234>
    157a:	a8 01       	movw	r20, r16
    157c:	b7 01       	movw	r22, r14
    157e:	ce 01       	movw	r24, r28
    1580:	41 96       	adiw	r24, 0x11	; 17
    1582:	bf dd       	rcall	.-1154   	; 0x1102 <aes_encrypt>
    1584:	fe 01       	movw	r30, r28
    1586:	31 96       	adiw	r30, 0x01	; 1
    1588:	80 e1       	ldi	r24, 0x10	; 16
    158a:	df 01       	movw	r26, r30
    158c:	1d 92       	st	X+, r1
    158e:	8a 95       	dec	r24
    1590:	e9 f7       	brne	.-6      	; 0x158c <aes_cmac_final+0x24e>
    1592:	a0 96       	adiw	r28, 0x20	; 32
    1594:	0f b6       	in	r0, 0x3f	; 63
    1596:	f8 94       	cli
    1598:	de bf       	out	0x3e, r29	; 62
    159a:	0f be       	out	0x3f, r0	; 63
    159c:	cd bf       	out	0x3d, r28	; 61
    159e:	df 91       	pop	r29
    15a0:	cf 91       	pop	r28
    15a2:	1f 91       	pop	r17
    15a4:	0f 91       	pop	r16
    15a6:	ff 90       	pop	r15
    15a8:	ef 90       	pop	r14
    15aa:	08 95       	ret

000015ac <lorawan_crypto_xor>:
    15ac:	cf 93       	push	r28
    15ae:	df 93       	push	r29
    15b0:	ec 01       	movw	r28, r24
    15b2:	db 01       	movw	r26, r22
    15b4:	fa 01       	movw	r30, r20
    15b6:	24 0f       	add	r18, r20
    15b8:	35 1f       	adc	r19, r21
    15ba:	04 c0       	rjmp	.+8      	; 0x15c4 <lorawan_crypto_xor+0x18>
    15bc:	89 91       	ld	r24, Y+
    15be:	9d 91       	ld	r25, X+
    15c0:	98 27       	eor	r25, r24
    15c2:	91 93       	st	Z+, r25
    15c4:	e2 17       	cp	r30, r18
    15c6:	f3 07       	cpc	r31, r19
    15c8:	c8 f3       	brcs	.-14     	; 0x15bc <lorawan_crypto_xor+0x10>
    15ca:	df 91       	pop	r29
    15cc:	cf 91       	pop	r28
    15ce:	08 95       	ret

000015d0 <lorawan_crypto_otaa_mic>:
    15d0:	ef 92       	push	r14
    15d2:	ff 92       	push	r15
    15d4:	0f 93       	push	r16
    15d6:	1f 93       	push	r17
    15d8:	cf 93       	push	r28
    15da:	df 93       	push	r29
    15dc:	cd b7       	in	r28, 0x3d	; 61
    15de:	de b7       	in	r29, 0x3e	; 62
    15e0:	c9 53       	subi	r28, 0x39	; 57
    15e2:	d1 40       	sbci	r29, 0x01	; 1
    15e4:	0f b6       	in	r0, 0x3f	; 63
    15e6:	f8 94       	cli
    15e8:	de bf       	out	0x3e, r29	; 62
    15ea:	0f be       	out	0x3f, r0	; 63
    15ec:	cd bf       	out	0x3d, r28	; 61
    15ee:	fc 01       	movw	r30, r24
    15f0:	7b 01       	movw	r14, r22
    15f2:	8a 01       	movw	r16, r20
    15f4:	93 e1       	ldi	r25, 0x13	; 19
    15f6:	de 01       	movw	r26, r28
    15f8:	11 96       	adiw	r26, 0x01	; 1
    15fa:	01 90       	ld	r0, Z+
    15fc:	0d 92       	st	X+, r0
    15fe:	9a 95       	dec	r25
    1600:	e1 f7       	brne	.-8      	; 0x15fa <lorawan_crypto_otaa_mic+0x2a>
    1602:	ce 01       	movw	r24, r28
    1604:	44 96       	adiw	r24, 0x14	; 20
    1606:	d2 dd       	rcall	.-1116   	; 0x11ac <aes_cmac_init>
    1608:	b7 01       	movw	r22, r14
    160a:	ce 01       	movw	r24, r28
    160c:	44 96       	adiw	r24, 0x14	; 20
    160e:	df dd       	rcall	.-1090   	; 0x11ce <aes_cmac_set_key>
    1610:	43 e1       	ldi	r20, 0x13	; 19
    1612:	50 e0       	ldi	r21, 0x00	; 0
    1614:	be 01       	movw	r22, r28
    1616:	6f 5f       	subi	r22, 0xFF	; 255
    1618:	7f 4f       	sbci	r23, 0xFF	; 255
    161a:	ce 01       	movw	r24, r28
    161c:	44 96       	adiw	r24, 0x14	; 20
    161e:	dc dd       	rcall	.-1096   	; 0x11d8 <aes_cmac_update>
    1620:	be 01       	movw	r22, r28
    1622:	6c 5e       	subi	r22, 0xEC	; 236
    1624:	7f 4f       	sbci	r23, 0xFF	; 255
    1626:	ce 01       	movw	r24, r28
    1628:	89 5d       	subi	r24, 0xD9	; 217
    162a:	9e 4f       	sbci	r25, 0xFE	; 254
    162c:	88 de       	rcall	.-752    	; 0x133e <aes_cmac_final>
    162e:	c9 5d       	subi	r28, 0xD9	; 217
    1630:	de 4f       	sbci	r29, 0xFE	; 254
    1632:	88 81       	ld	r24, Y
    1634:	99 81       	ldd	r25, Y+1	; 0x01
    1636:	c7 52       	subi	r28, 0x27	; 39
    1638:	d1 40       	sbci	r29, 0x01	; 1
    163a:	f8 01       	movw	r30, r16
    163c:	91 83       	std	Z+1, r25	; 0x01
    163e:	80 83       	st	Z, r24
    1640:	c7 5d       	subi	r28, 0xD7	; 215
    1642:	de 4f       	sbci	r29, 0xFE	; 254
    1644:	88 81       	ld	r24, Y
    1646:	99 81       	ldd	r25, Y+1	; 0x01
    1648:	c9 52       	subi	r28, 0x29	; 41
    164a:	d1 40       	sbci	r29, 0x01	; 1
    164c:	93 83       	std	Z+3, r25	; 0x03
    164e:	82 83       	std	Z+2, r24	; 0x02
    1650:	c7 5c       	subi	r28, 0xC7	; 199
    1652:	de 4f       	sbci	r29, 0xFE	; 254
    1654:	0f b6       	in	r0, 0x3f	; 63
    1656:	f8 94       	cli
    1658:	de bf       	out	0x3e, r29	; 62
    165a:	0f be       	out	0x3f, r0	; 63
    165c:	cd bf       	out	0x3d, r28	; 61
    165e:	df 91       	pop	r29
    1660:	cf 91       	pop	r28
    1662:	1f 91       	pop	r17
    1664:	0f 91       	pop	r16
    1666:	ff 90       	pop	r15
    1668:	ef 90       	pop	r14
    166a:	08 95       	ret

0000166c <lorawan_crypto_otaa_mic_answer>:
    166c:	8f 92       	push	r8
    166e:	9f 92       	push	r9
    1670:	af 92       	push	r10
    1672:	bf 92       	push	r11
    1674:	cf 92       	push	r12
    1676:	df 92       	push	r13
    1678:	ef 92       	push	r14
    167a:	ff 92       	push	r15
    167c:	0f 93       	push	r16
    167e:	1f 93       	push	r17
    1680:	cf 93       	push	r28
    1682:	df 93       	push	r29
    1684:	cd b7       	in	r28, 0x3d	; 61
    1686:	de b7       	in	r29, 0x3e	; 62
    1688:	c3 51       	subi	r28, 0x13	; 19
    168a:	d1 40       	sbci	r29, 0x01	; 1
    168c:	0f b6       	in	r0, 0x3f	; 63
    168e:	f8 94       	cli
    1690:	de bf       	out	0x3e, r29	; 62
    1692:	0f be       	out	0x3f, r0	; 63
    1694:	cd bf       	out	0x3d, r28	; 61
    1696:	4b 01       	movw	r8, r22
    1698:	7a 01       	movw	r14, r20
    169a:	ad b6       	in	r10, 0x3d	; 61
    169c:	be b6       	in	r11, 0x3e	; 62
    169e:	02 2f       	mov	r16, r18
    16a0:	10 e0       	ldi	r17, 0x00	; 0
    16a2:	a8 01       	movw	r20, r16
    16a4:	41 50       	subi	r20, 0x01	; 1
    16a6:	51 09       	sbc	r21, r1
    16a8:	2d b7       	in	r18, 0x3d	; 61
    16aa:	3e b7       	in	r19, 0x3e	; 62
    16ac:	20 1b       	sub	r18, r16
    16ae:	31 0b       	sbc	r19, r17
    16b0:	0f b6       	in	r0, 0x3f	; 63
    16b2:	f8 94       	cli
    16b4:	3e bf       	out	0x3e, r19	; 62
    16b6:	0f be       	out	0x3f, r0	; 63
    16b8:	2d bf       	out	0x3d, r18	; 61
    16ba:	ed b7       	in	r30, 0x3d	; 61
    16bc:	fe b7       	in	r31, 0x3e	; 62
    16be:	31 96       	adiw	r30, 0x01	; 1
    16c0:	6f 01       	movw	r12, r30
    16c2:	20 e2       	ldi	r18, 0x20	; 32
    16c4:	ed b7       	in	r30, 0x3d	; 61
    16c6:	fe b7       	in	r31, 0x3e	; 62
    16c8:	21 83       	std	Z+1, r18	; 0x01
    16ca:	bc 01       	movw	r22, r24
    16cc:	c6 01       	movw	r24, r12
    16ce:	01 96       	adiw	r24, 0x01	; 1
    16d0:	0e 94 1c 23 	call	0x4638	; 0x4638 <memcpy>
    16d4:	ce 01       	movw	r24, r28
    16d6:	01 96       	adiw	r24, 0x01	; 1
    16d8:	69 dd       	rcall	.-1326   	; 0x11ac <aes_cmac_init>
    16da:	b4 01       	movw	r22, r8
    16dc:	ce 01       	movw	r24, r28
    16de:	01 96       	adiw	r24, 0x01	; 1
    16e0:	76 dd       	rcall	.-1300   	; 0x11ce <aes_cmac_set_key>
    16e2:	a8 01       	movw	r20, r16
    16e4:	b6 01       	movw	r22, r12
    16e6:	ce 01       	movw	r24, r28
    16e8:	01 96       	adiw	r24, 0x01	; 1
    16ea:	76 dd       	rcall	.-1300   	; 0x11d8 <aes_cmac_update>
    16ec:	2d b7       	in	r18, 0x3d	; 61
    16ee:	3e b7       	in	r19, 0x3e	; 62
    16f0:	20 1b       	sub	r18, r16
    16f2:	31 0b       	sbc	r19, r17
    16f4:	0f b6       	in	r0, 0x3f	; 63
    16f6:	f8 94       	cli
    16f8:	3e bf       	out	0x3e, r19	; 62
    16fa:	0f be       	out	0x3f, r0	; 63
    16fc:	2d bf       	out	0x3d, r18	; 61
    16fe:	0d b7       	in	r16, 0x3d	; 61
    1700:	1e b7       	in	r17, 0x3e	; 62
    1702:	0f 5f       	subi	r16, 0xFF	; 255
    1704:	1f 4f       	sbci	r17, 0xFF	; 255
    1706:	be 01       	movw	r22, r28
    1708:	6f 5f       	subi	r22, 0xFF	; 255
    170a:	7f 4f       	sbci	r23, 0xFF	; 255
    170c:	c8 01       	movw	r24, r16
    170e:	17 de       	rcall	.-978    	; 0x133e <aes_cmac_final>
    1710:	f8 01       	movw	r30, r16
    1712:	80 81       	ld	r24, Z
    1714:	91 81       	ldd	r25, Z+1	; 0x01
    1716:	f7 01       	movw	r30, r14
    1718:	91 83       	std	Z+1, r25	; 0x01
    171a:	80 83       	st	Z, r24
    171c:	f8 01       	movw	r30, r16
    171e:	82 81       	ldd	r24, Z+2	; 0x02
    1720:	93 81       	ldd	r25, Z+3	; 0x03
    1722:	f7 01       	movw	r30, r14
    1724:	93 83       	std	Z+3, r25	; 0x03
    1726:	82 83       	std	Z+2, r24	; 0x02
    1728:	0f b6       	in	r0, 0x3f	; 63
    172a:	f8 94       	cli
    172c:	be be       	out	0x3e, r11	; 62
    172e:	0f be       	out	0x3f, r0	; 63
    1730:	ad be       	out	0x3d, r10	; 61
    1732:	cd 5e       	subi	r28, 0xED	; 237
    1734:	de 4f       	sbci	r29, 0xFE	; 254
    1736:	0f b6       	in	r0, 0x3f	; 63
    1738:	f8 94       	cli
    173a:	de bf       	out	0x3e, r29	; 62
    173c:	0f be       	out	0x3f, r0	; 63
    173e:	cd bf       	out	0x3d, r28	; 61
    1740:	df 91       	pop	r29
    1742:	cf 91       	pop	r28
    1744:	1f 91       	pop	r17
    1746:	0f 91       	pop	r16
    1748:	ff 90       	pop	r15
    174a:	ef 90       	pop	r14
    174c:	df 90       	pop	r13
    174e:	cf 90       	pop	r12
    1750:	bf 90       	pop	r11
    1752:	af 90       	pop	r10
    1754:	9f 90       	pop	r9
    1756:	8f 90       	pop	r8
    1758:	08 95       	ret

0000175a <lorawan_crypto_calculate_mic>:
    175a:	4f 92       	push	r4
    175c:	5f 92       	push	r5
    175e:	6f 92       	push	r6
    1760:	7f 92       	push	r7
    1762:	8f 92       	push	r8
    1764:	9f 92       	push	r9
    1766:	af 92       	push	r10
    1768:	bf 92       	push	r11
    176a:	cf 92       	push	r12
    176c:	df 92       	push	r13
    176e:	ef 92       	push	r14
    1770:	ff 92       	push	r15
    1772:	0f 93       	push	r16
    1774:	1f 93       	push	r17
    1776:	cf 93       	push	r28
    1778:	df 93       	push	r29
    177a:	cd b7       	in	r28, 0x3d	; 61
    177c:	de b7       	in	r29, 0x3e	; 62
    177e:	c3 53       	subi	r28, 0x33	; 51
    1780:	d1 40       	sbci	r29, 0x01	; 1
    1782:	0f b6       	in	r0, 0x3f	; 63
    1784:	f8 94       	cli
    1786:	de bf       	out	0x3e, r29	; 62
    1788:	0f be       	out	0x3f, r0	; 63
    178a:	cd bf       	out	0x3d, r28	; 61
    178c:	4c 01       	movw	r8, r24
    178e:	3b 01       	movw	r6, r22
    1790:	f4 2e       	mov	r15, r20
    1792:	29 01       	movw	r4, r18
    1794:	fe 01       	movw	r30, r28
    1796:	31 96       	adiw	r30, 0x01	; 1
    1798:	80 e1       	ldi	r24, 0x10	; 16
    179a:	df 01       	movw	r26, r30
    179c:	1d 92       	st	X+, r1
    179e:	8a 95       	dec	r24
    17a0:	e9 f7       	brne	.-6      	; 0x179c <lorawan_crypto_calculate_mic+0x42>
    17a2:	89 e4       	ldi	r24, 0x49	; 73
    17a4:	89 83       	std	Y+1, r24	; 0x01
    17a6:	ee 82       	std	Y+6, r14	; 0x06
    17a8:	20 e0       	ldi	r18, 0x00	; 0
    17aa:	10 c0       	rjmp	.+32     	; 0x17cc <lorawan_crypto_calculate_mic+0x72>
    17ac:	82 2f       	mov	r24, r18
    17ae:	90 e0       	ldi	r25, 0x00	; 0
    17b0:	fc 01       	movw	r30, r24
    17b2:	36 96       	adiw	r30, 0x06	; 6
    17b4:	d8 01       	movw	r26, r16
    17b6:	a8 0f       	add	r26, r24
    17b8:	b9 1f       	adc	r27, r25
    17ba:	8c 91       	ld	r24, X
    17bc:	41 e0       	ldi	r20, 0x01	; 1
    17be:	50 e0       	ldi	r21, 0x00	; 0
    17c0:	4c 0f       	add	r20, r28
    17c2:	5d 1f       	adc	r21, r29
    17c4:	e4 0f       	add	r30, r20
    17c6:	f5 1f       	adc	r31, r21
    17c8:	80 83       	st	Z, r24
    17ca:	2f 5f       	subi	r18, 0xFF	; 255
    17cc:	24 30       	cpi	r18, 0x04	; 4
    17ce:	70 f3       	brcs	.-36     	; 0x17ac <lorawan_crypto_calculate_mic+0x52>
    17d0:	ae 01       	movw	r20, r28
    17d2:	45 5f       	subi	r20, 0xF5	; 245
    17d4:	5f 4f       	sbci	r21, 0xFF	; 255
    17d6:	c6 01       	movw	r24, r12
    17d8:	b5 01       	movw	r22, r10
    17da:	f6 d4       	rcall	.+2540   	; 0x21c8 <uint32_to_uint8_array>
    17dc:	f8 8a       	std	Y+16, r15	; 0x10
    17de:	ce 01       	movw	r24, r28
    17e0:	41 96       	adiw	r24, 0x11	; 17
    17e2:	e4 dc       	rcall	.-1592   	; 0x11ac <aes_cmac_init>
    17e4:	b2 01       	movw	r22, r4
    17e6:	ce 01       	movw	r24, r28
    17e8:	41 96       	adiw	r24, 0x11	; 17
    17ea:	f1 dc       	rcall	.-1566   	; 0x11ce <aes_cmac_set_key>
    17ec:	40 e1       	ldi	r20, 0x10	; 16
    17ee:	50 e0       	ldi	r21, 0x00	; 0
    17f0:	be 01       	movw	r22, r28
    17f2:	6f 5f       	subi	r22, 0xFF	; 255
    17f4:	7f 4f       	sbci	r23, 0xFF	; 255
    17f6:	ce 01       	movw	r24, r28
    17f8:	41 96       	adiw	r24, 0x11	; 17
    17fa:	ee dc       	rcall	.-1572   	; 0x11d8 <aes_cmac_update>
    17fc:	4f 2d       	mov	r20, r15
    17fe:	50 e0       	ldi	r21, 0x00	; 0
    1800:	b3 01       	movw	r22, r6
    1802:	ce 01       	movw	r24, r28
    1804:	41 96       	adiw	r24, 0x11	; 17
    1806:	e8 dc       	rcall	.-1584   	; 0x11d8 <aes_cmac_update>
    1808:	be 01       	movw	r22, r28
    180a:	6f 5e       	subi	r22, 0xEF	; 239
    180c:	7f 4f       	sbci	r23, 0xFF	; 255
    180e:	ce 01       	movw	r24, r28
    1810:	8c 5d       	subi	r24, 0xDC	; 220
    1812:	9e 4f       	sbci	r25, 0xFE	; 254
    1814:	94 dd       	rcall	.-1240   	; 0x133e <aes_cmac_final>
    1816:	cc 5d       	subi	r28, 0xDC	; 220
    1818:	de 4f       	sbci	r29, 0xFE	; 254
    181a:	88 81       	ld	r24, Y
    181c:	99 81       	ldd	r25, Y+1	; 0x01
    181e:	c4 52       	subi	r28, 0x24	; 36
    1820:	d1 40       	sbci	r29, 0x01	; 1
    1822:	d4 01       	movw	r26, r8
    1824:	11 96       	adiw	r26, 0x01	; 1
    1826:	9c 93       	st	X, r25
    1828:	8e 93       	st	-X, r24
    182a:	ca 5d       	subi	r28, 0xDA	; 218
    182c:	de 4f       	sbci	r29, 0xFE	; 254
    182e:	88 81       	ld	r24, Y
    1830:	99 81       	ldd	r25, Y+1	; 0x01
    1832:	c6 52       	subi	r28, 0x26	; 38
    1834:	d1 40       	sbci	r29, 0x01	; 1
    1836:	13 96       	adiw	r26, 0x03	; 3
    1838:	9c 93       	st	X, r25
    183a:	8e 93       	st	-X, r24
    183c:	12 97       	sbiw	r26, 0x02	; 2
    183e:	cd 5c       	subi	r28, 0xCD	; 205
    1840:	de 4f       	sbci	r29, 0xFE	; 254
    1842:	0f b6       	in	r0, 0x3f	; 63
    1844:	f8 94       	cli
    1846:	de bf       	out	0x3e, r29	; 62
    1848:	0f be       	out	0x3f, r0	; 63
    184a:	cd bf       	out	0x3d, r28	; 61
    184c:	df 91       	pop	r29
    184e:	cf 91       	pop	r28
    1850:	1f 91       	pop	r17
    1852:	0f 91       	pop	r16
    1854:	ff 90       	pop	r15
    1856:	ef 90       	pop	r14
    1858:	df 90       	pop	r13
    185a:	cf 90       	pop	r12
    185c:	bf 90       	pop	r11
    185e:	af 90       	pop	r10
    1860:	9f 90       	pop	r9
    1862:	8f 90       	pop	r8
    1864:	7f 90       	pop	r7
    1866:	6f 90       	pop	r6
    1868:	5f 90       	pop	r5
    186a:	4f 90       	pop	r4
    186c:	08 95       	ret

0000186e <lorawan_crypto_encrypt>:
    186e:	2f 92       	push	r2
    1870:	3f 92       	push	r3
    1872:	4f 92       	push	r4
    1874:	5f 92       	push	r5
    1876:	6f 92       	push	r6
    1878:	7f 92       	push	r7
    187a:	8f 92       	push	r8
    187c:	9f 92       	push	r9
    187e:	af 92       	push	r10
    1880:	bf 92       	push	r11
    1882:	cf 92       	push	r12
    1884:	df 92       	push	r13
    1886:	ef 92       	push	r14
    1888:	ff 92       	push	r15
    188a:	0f 93       	push	r16
    188c:	1f 93       	push	r17
    188e:	cf 93       	push	r28
    1890:	df 93       	push	r29
    1892:	cd b7       	in	r28, 0x3d	; 61
    1894:	de b7       	in	r29, 0x3e	; 62
    1896:	c3 51       	subi	r28, 0x13	; 19
    1898:	d1 40       	sbci	r29, 0x01	; 1
    189a:	0f b6       	in	r0, 0x3f	; 63
    189c:	f8 94       	cli
    189e:	de bf       	out	0x3e, r29	; 62
    18a0:	0f be       	out	0x3f, r0	; 63
    18a2:	cd bf       	out	0x3d, r28	; 61
    18a4:	4c 01       	movw	r8, r24
    18a6:	3b 01       	movw	r6, r22
    18a8:	ce 5e       	subi	r28, 0xEE	; 238
    18aa:	de 4f       	sbci	r29, 0xFE	; 254
    18ac:	39 83       	std	Y+1, r19	; 0x01
    18ae:	28 83       	st	Y, r18
    18b0:	c2 51       	subi	r28, 0x12	; 18
    18b2:	d1 40       	sbci	r29, 0x01	; 1
    18b4:	44 23       	and	r20, r20
    18b6:	09 f4       	brne	.+2      	; 0x18ba <lorawan_crypto_encrypt+0x4c>
    18b8:	6c c0       	rjmp	.+216    	; 0x1992 <lorawan_crypto_encrypt+0x124>
    18ba:	84 2f       	mov	r24, r20
    18bc:	8f 70       	andi	r24, 0x0F	; 15
    18be:	48 2e       	mov	r4, r24
    18c0:	51 2c       	mov	r5, r1
    18c2:	42 95       	swap	r20
    18c4:	4f 70       	andi	r20, 0x0F	; 15
    18c6:	24 2e       	mov	r2, r20
    18c8:	31 2c       	mov	r3, r1
    18ca:	41 14       	cp	r4, r1
    18cc:	51 04       	cpc	r5, r1
    18ce:	19 f0       	breq	.+6      	; 0x18d6 <lorawan_crypto_encrypt+0x68>
    18d0:	4f ef       	ldi	r20, 0xFF	; 255
    18d2:	24 1a       	sub	r2, r20
    18d4:	34 0a       	sbc	r3, r20
    18d6:	fe 01       	movw	r30, r28
    18d8:	31 96       	adiw	r30, 0x01	; 1
    18da:	80 e1       	ldi	r24, 0x10	; 16
    18dc:	df 01       	movw	r26, r30
    18de:	1d 92       	st	X+, r1
    18e0:	8a 95       	dec	r24
    18e2:	e9 f7       	brne	.-6      	; 0x18de <lorawan_crypto_encrypt+0x70>
    18e4:	81 e0       	ldi	r24, 0x01	; 1
    18e6:	89 83       	std	Y+1, r24	; 0x01
    18e8:	ee 82       	std	Y+6, r14	; 0x06
    18ea:	20 e0       	ldi	r18, 0x00	; 0
    18ec:	10 c0       	rjmp	.+32     	; 0x190e <lorawan_crypto_encrypt+0xa0>
    18ee:	82 2f       	mov	r24, r18
    18f0:	90 e0       	ldi	r25, 0x00	; 0
    18f2:	fc 01       	movw	r30, r24
    18f4:	36 96       	adiw	r30, 0x06	; 6
    18f6:	d8 01       	movw	r26, r16
    18f8:	a8 0f       	add	r26, r24
    18fa:	b9 1f       	adc	r27, r25
    18fc:	8c 91       	ld	r24, X
    18fe:	41 e0       	ldi	r20, 0x01	; 1
    1900:	50 e0       	ldi	r21, 0x00	; 0
    1902:	4c 0f       	add	r20, r28
    1904:	5d 1f       	adc	r21, r29
    1906:	e4 0f       	add	r30, r20
    1908:	f5 1f       	adc	r31, r21
    190a:	80 83       	st	Z, r24
    190c:	2f 5f       	subi	r18, 0xFF	; 255
    190e:	24 30       	cpi	r18, 0x04	; 4
    1910:	70 f3       	brcs	.-36     	; 0x18ee <lorawan_crypto_encrypt+0x80>
    1912:	ae 01       	movw	r20, r28
    1914:	45 5f       	subi	r20, 0xF5	; 245
    1916:	5f 4f       	sbci	r21, 0xFF	; 255
    1918:	c6 01       	movw	r24, r12
    191a:	b5 01       	movw	r22, r10
    191c:	55 d4       	rcall	.+2218   	; 0x21c8 <uint32_to_uint8_array>
    191e:	ff 24       	eor	r15, r15
    1920:	f3 94       	inc	r15
    1922:	30 c0       	rjmp	.+96     	; 0x1984 <lorawan_crypto_encrypt+0x116>
    1924:	f8 8a       	std	Y+16, r15	; 0x10
    1926:	ae 01       	movw	r20, r28
    1928:	4f 5e       	subi	r20, 0xEF	; 239
    192a:	5f 4f       	sbci	r21, 0xFF	; 255
    192c:	60 e1       	ldi	r22, 0x10	; 16
    192e:	ce 5e       	subi	r28, 0xEE	; 238
    1930:	de 4f       	sbci	r29, 0xFE	; 254
    1932:	88 81       	ld	r24, Y
    1934:	99 81       	ldd	r25, Y+1	; 0x01
    1936:	c2 51       	subi	r28, 0x12	; 18
    1938:	d1 40       	sbci	r29, 0x01	; 1
    193a:	1e db       	rcall	.-2500   	; 0xf78 <aes_set_key>
    193c:	ae 01       	movw	r20, r28
    193e:	4f 5e       	subi	r20, 0xEF	; 239
    1940:	5f 4f       	sbci	r21, 0xFF	; 255
    1942:	be 01       	movw	r22, r28
    1944:	6e 5f       	subi	r22, 0xFE	; 254
    1946:	7e 4f       	sbci	r23, 0xFE	; 254
    1948:	ce 01       	movw	r24, r28
    194a:	01 96       	adiw	r24, 0x01	; 1
    194c:	da db       	rcall	.-2124   	; 0x1102 <aes_encrypt>
    194e:	02 15       	cp	r16, r2
    1950:	13 05       	cpc	r17, r3
    1952:	34 f0       	brlt	.+12     	; 0x1960 <lorawan_crypto_encrypt+0xf2>
    1954:	41 14       	cp	r4, r1
    1956:	51 04       	cpc	r5, r1
    1958:	31 f4       	brne	.+12     	; 0x1966 <lorawan_crypto_encrypt+0xf8>
    195a:	20 e1       	ldi	r18, 0x10	; 16
    195c:	30 e0       	ldi	r19, 0x00	; 0
    195e:	05 c0       	rjmp	.+10     	; 0x196a <lorawan_crypto_encrypt+0xfc>
    1960:	20 e1       	ldi	r18, 0x10	; 16
    1962:	30 e0       	ldi	r19, 0x00	; 0
    1964:	02 c0       	rjmp	.+4      	; 0x196a <lorawan_crypto_encrypt+0xfc>
    1966:	24 2d       	mov	r18, r4
    1968:	35 2d       	mov	r19, r5
    196a:	a4 01       	movw	r20, r8
    196c:	b3 01       	movw	r22, r6
    196e:	ce 01       	movw	r24, r28
    1970:	8e 5f       	subi	r24, 0xFE	; 254
    1972:	9e 4f       	sbci	r25, 0xFE	; 254
    1974:	1b de       	rcall	.-970    	; 0x15ac <lorawan_crypto_xor>
    1976:	f3 94       	inc	r15
    1978:	50 e1       	ldi	r21, 0x10	; 16
    197a:	65 0e       	add	r6, r21
    197c:	71 1c       	adc	r7, r1
    197e:	80 e1       	ldi	r24, 0x10	; 16
    1980:	88 0e       	add	r8, r24
    1982:	91 1c       	adc	r9, r1
    1984:	0f 2d       	mov	r16, r15
    1986:	10 e0       	ldi	r17, 0x00	; 0
    1988:	20 16       	cp	r2, r16
    198a:	31 06       	cpc	r3, r17
    198c:	5c f6       	brge	.-106    	; 0x1924 <lorawan_crypto_encrypt+0xb6>
    198e:	81 e0       	ldi	r24, 0x01	; 1
    1990:	01 c0       	rjmp	.+2      	; 0x1994 <lorawan_crypto_encrypt+0x126>
    1992:	80 e0       	ldi	r24, 0x00	; 0
    1994:	cd 5e       	subi	r28, 0xED	; 237
    1996:	de 4f       	sbci	r29, 0xFE	; 254
    1998:	0f b6       	in	r0, 0x3f	; 63
    199a:	f8 94       	cli
    199c:	de bf       	out	0x3e, r29	; 62
    199e:	0f be       	out	0x3f, r0	; 63
    19a0:	cd bf       	out	0x3d, r28	; 61
    19a2:	df 91       	pop	r29
    19a4:	cf 91       	pop	r28
    19a6:	1f 91       	pop	r17
    19a8:	0f 91       	pop	r16
    19aa:	ff 90       	pop	r15
    19ac:	ef 90       	pop	r14
    19ae:	df 90       	pop	r13
    19b0:	cf 90       	pop	r12
    19b2:	bf 90       	pop	r11
    19b4:	af 90       	pop	r10
    19b6:	9f 90       	pop	r9
    19b8:	8f 90       	pop	r8
    19ba:	7f 90       	pop	r7
    19bc:	6f 90       	pop	r6
    19be:	5f 90       	pop	r5
    19c0:	4f 90       	pop	r4
    19c2:	3f 90       	pop	r3
    19c4:	2f 90       	pop	r2
    19c6:	08 95       	ret

000019c8 <lorawan_otaa_encrypt>:
    19c8:	cf 92       	push	r12
    19ca:	df 92       	push	r13
    19cc:	ef 92       	push	r14
    19ce:	ff 92       	push	r15
    19d0:	1f 93       	push	r17
    19d2:	cf 93       	push	r28
    19d4:	df 93       	push	r29
    19d6:	cd b7       	in	r28, 0x3d	; 61
    19d8:	de b7       	in	r29, 0x3e	; 62
    19da:	c1 5f       	subi	r28, 0xF1	; 241
    19dc:	d1 09       	sbc	r29, r1
    19de:	0f b6       	in	r0, 0x3f	; 63
    19e0:	f8 94       	cli
    19e2:	de bf       	out	0x3e, r29	; 62
    19e4:	0f be       	out	0x3f, r0	; 63
    19e6:	cd bf       	out	0x3d, r28	; 61
    19e8:	22 23       	and	r18, r18
    19ea:	d9 f0       	breq	.+54     	; 0x1a22 <lorawan_otaa_encrypt+0x5a>
    19ec:	12 2f       	mov	r17, r18
    19ee:	9a 01       	movw	r18, r20
    19f0:	6b 01       	movw	r12, r22
    19f2:	7c 01       	movw	r14, r24
    19f4:	ae 01       	movw	r20, r28
    19f6:	4f 5f       	subi	r20, 0xFF	; 255
    19f8:	5f 4f       	sbci	r21, 0xFF	; 255
    19fa:	60 e1       	ldi	r22, 0x10	; 16
    19fc:	c9 01       	movw	r24, r18
    19fe:	bc da       	rcall	.-2696   	; 0xf78 <aes_set_key>
    1a00:	ae 01       	movw	r20, r28
    1a02:	4f 5f       	subi	r20, 0xFF	; 255
    1a04:	5f 4f       	sbci	r21, 0xFF	; 255
    1a06:	b7 01       	movw	r22, r14
    1a08:	c6 01       	movw	r24, r12
    1a0a:	7b db       	rcall	.-2314   	; 0x1102 <aes_encrypt>
    1a0c:	11 31       	cpi	r17, 0x11	; 17
    1a0e:	48 f0       	brcs	.+18     	; 0x1a22 <lorawan_otaa_encrypt+0x5a>
    1a10:	b7 01       	movw	r22, r14
    1a12:	60 5f       	subi	r22, 0xF0	; 240
    1a14:	7f 4f       	sbci	r23, 0xFF	; 255
    1a16:	ae 01       	movw	r20, r28
    1a18:	4f 5f       	subi	r20, 0xFF	; 255
    1a1a:	5f 4f       	sbci	r21, 0xFF	; 255
    1a1c:	c6 01       	movw	r24, r12
    1a1e:	40 96       	adiw	r24, 0x10	; 16
    1a20:	70 db       	rcall	.-2336   	; 0x1102 <aes_encrypt>
    1a22:	cf 50       	subi	r28, 0x0F	; 15
    1a24:	df 4f       	sbci	r29, 0xFF	; 255
    1a26:	0f b6       	in	r0, 0x3f	; 63
    1a28:	f8 94       	cli
    1a2a:	de bf       	out	0x3e, r29	; 62
    1a2c:	0f be       	out	0x3f, r0	; 63
    1a2e:	cd bf       	out	0x3d, r28	; 61
    1a30:	df 91       	pop	r29
    1a32:	cf 91       	pop	r28
    1a34:	1f 91       	pop	r17
    1a36:	ff 90       	pop	r15
    1a38:	ef 90       	pop	r14
    1a3a:	df 90       	pop	r13
    1a3c:	cf 90       	pop	r12
    1a3e:	08 95       	ret

00001a40 <lorawan_compute_keys>:
    1a40:	cf 92       	push	r12
    1a42:	df 92       	push	r13
    1a44:	ef 92       	push	r14
    1a46:	ff 92       	push	r15
    1a48:	0f 93       	push	r16
    1a4a:	1f 93       	push	r17
    1a4c:	cf 93       	push	r28
    1a4e:	df 93       	push	r29
    1a50:	cd b7       	in	r28, 0x3d	; 61
    1a52:	de b7       	in	r29, 0x3e	; 62
    1a54:	c1 50       	subi	r28, 0x01	; 1
    1a56:	d1 40       	sbci	r29, 0x01	; 1
    1a58:	0f b6       	in	r0, 0x3f	; 63
    1a5a:	f8 94       	cli
    1a5c:	de bf       	out	0x3e, r29	; 62
    1a5e:	0f be       	out	0x3f, r0	; 63
    1a60:	cd bf       	out	0x3d, r28	; 61
    1a62:	fc 01       	movw	r30, r24
    1a64:	c9 01       	movw	r24, r18
    1a66:	9e 01       	movw	r18, r28
    1a68:	2f 5f       	subi	r18, 0xFF	; 255
    1a6a:	3f 4f       	sbci	r19, 0xFF	; 255
    1a6c:	69 01       	movw	r12, r18
    1a6e:	20 e1       	ldi	r18, 0x10	; 16
    1a70:	d6 01       	movw	r26, r12
    1a72:	1d 92       	st	X+, r1
    1a74:	2a 95       	dec	r18
    1a76:	e9 f7       	brne	.-6      	; 0x1a72 <lorawan_compute_keys+0x32>
    1a78:	21 e0       	ldi	r18, 0x01	; 1
    1a7a:	29 83       	std	Y+1, r18	; 0x01
    1a7c:	20 81       	ld	r18, Z
    1a7e:	31 81       	ldd	r19, Z+1	; 0x01
    1a80:	3b 83       	std	Y+3, r19	; 0x03
    1a82:	2a 83       	std	Y+2, r18	; 0x02
    1a84:	22 81       	ldd	r18, Z+2	; 0x02
    1a86:	2c 83       	std	Y+4, r18	; 0x04
    1a88:	fb 01       	movw	r30, r22
    1a8a:	20 81       	ld	r18, Z
    1a8c:	31 81       	ldd	r19, Z+1	; 0x01
    1a8e:	3e 83       	std	Y+6, r19	; 0x06
    1a90:	2d 83       	std	Y+5, r18	; 0x05
    1a92:	22 81       	ldd	r18, Z+2	; 0x02
    1a94:	2f 83       	std	Y+7, r18	; 0x07
    1a96:	da 01       	movw	r26, r20
    1a98:	11 96       	adiw	r26, 0x01	; 1
    1a9a:	2c 91       	ld	r18, X
    1a9c:	11 97       	sbiw	r26, 0x01	; 1
    1a9e:	28 87       	std	Y+8, r18	; 0x08
    1aa0:	2c 91       	ld	r18, X
    1aa2:	29 87       	std	Y+9, r18	; 0x09
    1aa4:	ae 01       	movw	r20, r28
    1aa6:	4f 5e       	subi	r20, 0xEF	; 239
    1aa8:	5f 4f       	sbci	r21, 0xFF	; 255
    1aaa:	60 e1       	ldi	r22, 0x10	; 16
    1aac:	65 da       	rcall	.-2870   	; 0xf78 <aes_set_key>
    1aae:	ae 01       	movw	r20, r28
    1ab0:	4f 5e       	subi	r20, 0xEF	; 239
    1ab2:	5f 4f       	sbci	r21, 0xFF	; 255
    1ab4:	b8 01       	movw	r22, r16
    1ab6:	c6 01       	movw	r24, r12
    1ab8:	24 db       	rcall	.-2488   	; 0x1102 <aes_encrypt>
    1aba:	82 e0       	ldi	r24, 0x02	; 2
    1abc:	89 83       	std	Y+1, r24	; 0x01
    1abe:	ae 01       	movw	r20, r28
    1ac0:	4f 5e       	subi	r20, 0xEF	; 239
    1ac2:	5f 4f       	sbci	r21, 0xFF	; 255
    1ac4:	b7 01       	movw	r22, r14
    1ac6:	c6 01       	movw	r24, r12
    1ac8:	1c db       	rcall	.-2504   	; 0x1102 <aes_encrypt>
    1aca:	cf 5f       	subi	r28, 0xFF	; 255
    1acc:	de 4f       	sbci	r29, 0xFE	; 254
    1ace:	0f b6       	in	r0, 0x3f	; 63
    1ad0:	f8 94       	cli
    1ad2:	de bf       	out	0x3e, r29	; 62
    1ad4:	0f be       	out	0x3f, r0	; 63
    1ad6:	cd bf       	out	0x3d, r28	; 61
    1ad8:	df 91       	pop	r29
    1ada:	cf 91       	pop	r28
    1adc:	1f 91       	pop	r17
    1ade:	0f 91       	pop	r16
    1ae0:	ff 90       	pop	r15
    1ae2:	ef 90       	pop	r14
    1ae4:	df 90       	pop	r13
    1ae6:	cf 90       	pop	r12
    1ae8:	08 95       	ret

00001aea <lorawan_packets_reset_counter>:
    1aea:	fc 01       	movw	r30, r24
    1aec:	10 82       	st	Z, r1
    1aee:	11 82       	std	Z+1, r1	; 0x01
    1af0:	12 82       	std	Z+2, r1	; 0x02
    1af2:	13 82       	std	Z+3, r1	; 0x03
    1af4:	14 82       	std	Z+4, r1	; 0x04
    1af6:	15 82       	std	Z+5, r1	; 0x05
    1af8:	16 82       	std	Z+6, r1	; 0x06
    1afa:	17 82       	std	Z+7, r1	; 0x07
    1afc:	08 95       	ret

00001afe <lorawan_packets_init>:
    1afe:	0f 93       	push	r16
    1b00:	1f 93       	push	r17
    1b02:	cf 93       	push	r28
    1b04:	df 93       	push	r29
    1b06:	cd b7       	in	r28, 0x3d	; 61
    1b08:	de b7       	in	r29, 0x3e	; 62
    1b0a:	85 e5       	ldi	r24, 0x55	; 85
    1b0c:	90 e0       	ldi	r25, 0x00	; 0
    1b0e:	0e 94 95 21 	call	0x432a	; 0x432a <malloc>
    1b12:	8c 01       	movw	r16, r24
    1b14:	ea df       	rcall	.-44     	; 0x1aea <lorawan_packets_reset_counter>
    1b16:	8d e4       	ldi	r24, 0x4D	; 77
    1b18:	fe 01       	movw	r30, r28
    1b1a:	37 96       	adiw	r30, 0x07	; 7
    1b1c:	d8 01       	movw	r26, r16
    1b1e:	18 96       	adiw	r26, 0x08	; 8
    1b20:	01 90       	ld	r0, Z+
    1b22:	0d 92       	st	X+, r0
    1b24:	8a 95       	dec	r24
    1b26:	e1 f7       	brne	.-8      	; 0x1b20 <lorawan_packets_init+0x22>
    1b28:	8e e3       	ldi	r24, 0x3E	; 62
    1b2a:	84 d6       	rcall	.+3336   	; 0x2834 <lorawan_read_otaa_information>
    1b2c:	90 e0       	ldi	r25, 0x00	; 0
    1b2e:	a0 e0       	ldi	r26, 0x00	; 0
    1b30:	b0 e0       	ldi	r27, 0x00	; 0
    1b32:	f8 01       	movw	r30, r16
    1b34:	80 83       	st	Z, r24
    1b36:	91 83       	std	Z+1, r25	; 0x01
    1b38:	a2 83       	std	Z+2, r26	; 0x02
    1b3a:	b3 83       	std	Z+3, r27	; 0x03
    1b3c:	c8 01       	movw	r24, r16
    1b3e:	df 91       	pop	r29
    1b40:	cf 91       	pop	r28
    1b42:	1f 91       	pop	r17
    1b44:	0f 91       	pop	r16
    1b46:	08 95       	ret

00001b48 <lorawan_packets_calculate_needed_buffer_length>:
    1b48:	83 5f       	subi	r24, 0xF3	; 243
    1b4a:	08 95       	ret

00001b4c <lorawan_packets_delete_packet>:
    1b4c:	cf 93       	push	r28
    1b4e:	df 93       	push	r29
    1b50:	00 97       	sbiw	r24, 0x00	; 0
    1b52:	51 f0       	breq	.+20     	; 0x1b68 <lorawan_packets_delete_packet+0x1c>
    1b54:	ec 01       	movw	r28, r24
    1b56:	89 85       	ldd	r24, Y+9	; 0x09
    1b58:	9a 85       	ldd	r25, Y+10	; 0x0a
    1b5a:	00 97       	sbiw	r24, 0x00	; 0
    1b5c:	11 f0       	breq	.+4      	; 0x1b62 <lorawan_packets_delete_packet+0x16>
    1b5e:	0e 94 2d 22 	call	0x445a	; 0x445a <free>
    1b62:	ce 01       	movw	r24, r28
    1b64:	0e 94 2d 22 	call	0x445a	; 0x445a <free>
    1b68:	df 91       	pop	r29
    1b6a:	cf 91       	pop	r28
    1b6c:	08 95       	ret

00001b6e <lorawan_new_join_request>:
    1b6e:	0f 93       	push	r16
    1b70:	1f 93       	push	r17
    1b72:	cf 93       	push	r28
    1b74:	df 93       	push	r29
    1b76:	61 15       	cp	r22, r1
    1b78:	71 05       	cpc	r23, r1
    1b7a:	49 f1       	breq	.+82     	; 0x1bce <lorawan_new_join_request+0x60>
    1b7c:	8b 01       	movw	r16, r22
    1b7e:	80 e1       	ldi	r24, 0x10	; 16
    1b80:	90 e0       	ldi	r25, 0x00	; 0
    1b82:	0e 94 95 21 	call	0x432a	; 0x432a <malloc>
    1b86:	ec 01       	movw	r28, r24
    1b88:	89 2b       	or	r24, r25
    1b8a:	21 f1       	breq	.+72     	; 0x1bd4 <lorawan_new_join_request+0x66>
    1b8c:	80 e1       	ldi	r24, 0x10	; 16
    1b8e:	fe 01       	movw	r30, r28
    1b90:	11 92       	st	Z+, r1
    1b92:	8a 95       	dec	r24
    1b94:	e9 f7       	brne	.-6      	; 0x1b90 <lorawan_new_join_request+0x22>
    1b96:	86 e1       	ldi	r24, 0x16	; 22
    1b98:	90 e0       	ldi	r25, 0x00	; 0
    1b9a:	0e 94 95 21 	call	0x432a	; 0x432a <malloc>
    1b9e:	9a 87       	std	Y+10, r25	; 0x0a
    1ba0:	89 87       	std	Y+9, r24	; 0x09
    1ba2:	00 97       	sbiw	r24, 0x00	; 0
    1ba4:	29 f4       	brne	.+10     	; 0x1bb0 <lorawan_new_join_request+0x42>
    1ba6:	ce 01       	movw	r24, r28
    1ba8:	d1 df       	rcall	.-94     	; 0x1b4c <lorawan_packets_delete_packet>
    1baa:	80 e0       	ldi	r24, 0x00	; 0
    1bac:	90 e0       	ldi	r25, 0x00	; 0
    1bae:	14 c0       	rjmp	.+40     	; 0x1bd8 <lorawan_new_join_request+0x6a>
    1bb0:	26 e1       	ldi	r18, 0x16	; 22
    1bb2:	f8 01       	movw	r30, r16
    1bb4:	dc 01       	movw	r26, r24
    1bb6:	01 90       	ld	r0, Z+
    1bb8:	0d 92       	st	X+, r0
    1bba:	2a 95       	dec	r18
    1bbc:	e1 f7       	brne	.-8      	; 0x1bb6 <lorawan_new_join_request+0x48>
    1bbe:	86 e1       	ldi	r24, 0x16	; 22
    1bc0:	8b 87       	std	Y+11, r24	; 0x0b
    1bc2:	19 82       	std	Y+1, r1	; 0x01
    1bc4:	18 82       	st	Y, r1
    1bc6:	18 86       	std	Y+8, r1	; 0x08
    1bc8:	8c 2f       	mov	r24, r28
    1bca:	9d 2f       	mov	r25, r29
    1bcc:	05 c0       	rjmp	.+10     	; 0x1bd8 <lorawan_new_join_request+0x6a>
    1bce:	80 e0       	ldi	r24, 0x00	; 0
    1bd0:	90 e0       	ldi	r25, 0x00	; 0
    1bd2:	02 c0       	rjmp	.+4      	; 0x1bd8 <lorawan_new_join_request+0x6a>
    1bd4:	80 e0       	ldi	r24, 0x00	; 0
    1bd6:	90 e0       	ldi	r25, 0x00	; 0
    1bd8:	df 91       	pop	r29
    1bda:	cf 91       	pop	r28
    1bdc:	1f 91       	pop	r17
    1bde:	0f 91       	pop	r16
    1be0:	08 95       	ret

00001be2 <lorawan_otaa_packet>:
    1be2:	cf 93       	push	r28
    1be4:	df 93       	push	r29
    1be6:	00 d0       	rcall	.+0      	; 0x1be8 <lorawan_otaa_packet+0x6>
    1be8:	cd b7       	in	r28, 0x3d	; 61
    1bea:	de b7       	in	r29, 0x3e	; 62
    1bec:	9a 83       	std	Y+2, r25	; 0x02
    1bee:	89 83       	std	Y+1, r24	; 0x01
    1bf0:	86 e1       	ldi	r24, 0x16	; 22
    1bf2:	90 e0       	ldi	r25, 0x00	; 0
    1bf4:	0e 94 95 21 	call	0x432a	; 0x432a <malloc>
    1bf8:	bc 01       	movw	r22, r24
    1bfa:	89 2b       	or	r24, r25
    1bfc:	09 f4       	brne	.+2      	; 0x1c00 <lorawan_otaa_packet+0x1e>
    1bfe:	46 c0       	rjmp	.+140    	; 0x1c8c <lorawan_otaa_packet+0xaa>
    1c00:	90 e0       	ldi	r25, 0x00	; 0
    1c02:	10 c0       	rjmp	.+32     	; 0x1c24 <lorawan_otaa_packet+0x42>
    1c04:	29 2f       	mov	r18, r25
    1c06:	30 e0       	ldi	r19, 0x00	; 0
    1c08:	db 01       	movw	r26, r22
    1c0a:	a2 0f       	add	r26, r18
    1c0c:	b3 1f       	adc	r27, r19
    1c0e:	49 81       	ldd	r20, Y+1	; 0x01
    1c10:	5a 81       	ldd	r21, Y+2	; 0x02
    1c12:	e7 e0       	ldi	r30, 0x07	; 7
    1c14:	f0 e0       	ldi	r31, 0x00	; 0
    1c16:	e2 1b       	sub	r30, r18
    1c18:	f3 0b       	sbc	r31, r19
    1c1a:	e4 0f       	add	r30, r20
    1c1c:	f5 1f       	adc	r31, r21
    1c1e:	84 8d       	ldd	r24, Z+28	; 0x1c
    1c20:	8c 93       	st	X, r24
    1c22:	9f 5f       	subi	r25, 0xFF	; 255
    1c24:	98 30       	cpi	r25, 0x08	; 8
    1c26:	70 f3       	brcs	.-36     	; 0x1c04 <lorawan_otaa_packet+0x22>
    1c28:	90 e0       	ldi	r25, 0x00	; 0
    1c2a:	13 c0       	rjmp	.+38     	; 0x1c52 <lorawan_otaa_packet+0x70>
    1c2c:	29 2f       	mov	r18, r25
    1c2e:	30 e0       	ldi	r19, 0x00	; 0
    1c30:	d9 01       	movw	r26, r18
    1c32:	18 96       	adiw	r26, 0x08	; 8
    1c34:	a6 0f       	add	r26, r22
    1c36:	b7 1f       	adc	r27, r23
    1c38:	49 81       	ldd	r20, Y+1	; 0x01
    1c3a:	5a 81       	ldd	r21, Y+2	; 0x02
    1c3c:	e7 e0       	ldi	r30, 0x07	; 7
    1c3e:	f0 e0       	ldi	r31, 0x00	; 0
    1c40:	e2 1b       	sub	r30, r18
    1c42:	f3 0b       	sbc	r31, r19
    1c44:	e4 0f       	add	r30, r20
    1c46:	f5 1f       	adc	r31, r21
    1c48:	ec 5b       	subi	r30, 0xBC	; 188
    1c4a:	ff 4f       	sbci	r31, 0xFF	; 255
    1c4c:	80 81       	ld	r24, Z
    1c4e:	8c 93       	st	X, r24
    1c50:	9f 5f       	subi	r25, 0xFF	; 255
    1c52:	98 30       	cpi	r25, 0x08	; 8
    1c54:	58 f3       	brcs	.-42     	; 0x1c2c <lorawan_otaa_packet+0x4a>
    1c56:	80 e0       	ldi	r24, 0x00	; 0
    1c58:	13 c0       	rjmp	.+38     	; 0x1c80 <lorawan_otaa_packet+0x9e>
    1c5a:	28 2f       	mov	r18, r24
    1c5c:	30 e0       	ldi	r19, 0x00	; 0
    1c5e:	d9 01       	movw	r26, r18
    1c60:	50 96       	adiw	r26, 0x10	; 16
    1c62:	a6 0f       	add	r26, r22
    1c64:	b7 1f       	adc	r27, r23
    1c66:	49 81       	ldd	r20, Y+1	; 0x01
    1c68:	5a 81       	ldd	r21, Y+2	; 0x02
    1c6a:	e1 e0       	ldi	r30, 0x01	; 1
    1c6c:	f0 e0       	ldi	r31, 0x00	; 0
    1c6e:	e2 1b       	sub	r30, r18
    1c70:	f3 0b       	sbc	r31, r19
    1c72:	e4 0f       	add	r30, r20
    1c74:	f5 1f       	adc	r31, r21
    1c76:	e4 5b       	subi	r30, 0xB4	; 180
    1c78:	ff 4f       	sbci	r31, 0xFF	; 255
    1c7a:	90 81       	ld	r25, Z
    1c7c:	9c 93       	st	X, r25
    1c7e:	8f 5f       	subi	r24, 0xFF	; 255
    1c80:	82 30       	cpi	r24, 0x02	; 2
    1c82:	58 f3       	brcs	.-42     	; 0x1c5a <lorawan_otaa_packet+0x78>
    1c84:	ce 01       	movw	r24, r28
    1c86:	01 96       	adiw	r24, 0x01	; 1
    1c88:	72 df       	rcall	.-284    	; 0x1b6e <lorawan_new_join_request>
    1c8a:	02 c0       	rjmp	.+4      	; 0x1c90 <lorawan_otaa_packet+0xae>
    1c8c:	80 e0       	ldi	r24, 0x00	; 0
    1c8e:	90 e0       	ldi	r25, 0x00	; 0
    1c90:	0f 90       	pop	r0
    1c92:	0f 90       	pop	r0
    1c94:	df 91       	pop	r29
    1c96:	cf 91       	pop	r28
    1c98:	08 95       	ret

00001c9a <lorawan_packets_new_packet>:
    1c9a:	af 92       	push	r10
    1c9c:	bf 92       	push	r11
    1c9e:	cf 92       	push	r12
    1ca0:	df 92       	push	r13
    1ca2:	ef 92       	push	r14
    1ca4:	ff 92       	push	r15
    1ca6:	0f 93       	push	r16
    1ca8:	1f 93       	push	r17
    1caa:	cf 93       	push	r28
    1cac:	df 93       	push	r29
    1cae:	8c 01       	movw	r16, r24
    1cb0:	6b 01       	movw	r12, r22
    1cb2:	f4 2e       	mov	r15, r20
    1cb4:	8e ed       	ldi	r24, 0xDE	; 222
    1cb6:	84 17       	cp	r24, r20
    1cb8:	10 f4       	brcc	.+4      	; 0x1cbe <lorawan_packets_new_packet+0x24>
    1cba:	0e 94 0b 23 	call	0x4616	; 0x4616 <abort>
    1cbe:	67 2b       	or	r22, r23
    1cc0:	09 f4       	brne	.+2      	; 0x1cc4 <lorawan_packets_new_packet+0x2a>
    1cc2:	52 c0       	rjmp	.+164    	; 0x1d68 <lorawan_packets_new_packet+0xce>
    1cc4:	44 23       	and	r20, r20
    1cc6:	09 f4       	brne	.+2      	; 0x1cca <lorawan_packets_new_packet+0x30>
    1cc8:	52 c0       	rjmp	.+164    	; 0x1d6e <lorawan_packets_new_packet+0xd4>
    1cca:	80 e1       	ldi	r24, 0x10	; 16
    1ccc:	90 e0       	ldi	r25, 0x00	; 0
    1cce:	0e 94 95 21 	call	0x432a	; 0x432a <malloc>
    1cd2:	ec 01       	movw	r28, r24
    1cd4:	89 2b       	or	r24, r25
    1cd6:	09 f4       	brne	.+2      	; 0x1cda <lorawan_packets_new_packet+0x40>
    1cd8:	4d c0       	rjmp	.+154    	; 0x1d74 <lorawan_packets_new_packet+0xda>
    1cda:	80 e1       	ldi	r24, 0x10	; 16
    1cdc:	fe 01       	movw	r30, r28
    1cde:	11 92       	st	Z+, r1
    1ce0:	8a 95       	dec	r24
    1ce2:	e9 f7       	brne	.-6      	; 0x1cde <lorawan_packets_new_packet+0x44>
    1ce4:	af 2c       	mov	r10, r15
    1ce6:	b1 2c       	mov	r11, r1
    1ce8:	c5 01       	movw	r24, r10
    1cea:	0e 94 95 21 	call	0x432a	; 0x432a <malloc>
    1cee:	9a 87       	std	Y+10, r25	; 0x0a
    1cf0:	89 87       	std	Y+9, r24	; 0x09
    1cf2:	00 97       	sbiw	r24, 0x00	; 0
    1cf4:	29 f4       	brne	.+10     	; 0x1d00 <lorawan_packets_new_packet+0x66>
    1cf6:	ce 01       	movw	r24, r28
    1cf8:	29 df       	rcall	.-430    	; 0x1b4c <lorawan_packets_delete_packet>
    1cfa:	80 e0       	ldi	r24, 0x00	; 0
    1cfc:	90 e0       	ldi	r25, 0x00	; 0
    1cfe:	3f c0       	rjmp	.+126    	; 0x1d7e <lorawan_packets_new_packet+0xe4>
    1d00:	a5 01       	movw	r20, r10
    1d02:	b6 01       	movw	r22, r12
    1d04:	0e 94 1c 23 	call	0x4638	; 0x4638 <memcpy>
    1d08:	fb 86       	std	Y+11, r15	; 0x0b
    1d0a:	19 82       	std	Y+1, r1	; 0x01
    1d0c:	82 e0       	ldi	r24, 0x02	; 2
    1d0e:	88 83       	st	Y, r24
    1d10:	81 e0       	ldi	r24, 0x01	; 1
    1d12:	88 87       	std	Y+8, r24	; 0x08
    1d14:	c8 01       	movw	r24, r16
    1d16:	08 96       	adiw	r24, 0x08	; 8
    1d18:	9b 83       	std	Y+3, r25	; 0x03
    1d1a:	8a 83       	std	Y+2, r24	; 0x02
    1d1c:	f8 01       	movw	r30, r16
    1d1e:	c0 80       	ld	r12, Z
    1d20:	d1 80       	ldd	r13, Z+1	; 0x01
    1d22:	e2 80       	ldd	r14, Z+2	; 0x02
    1d24:	f3 80       	ldd	r15, Z+3	; 0x03
    1d26:	cc 82       	std	Y+4, r12	; 0x04
    1d28:	dd 82       	std	Y+5, r13	; 0x05
    1d2a:	ee 82       	std	Y+6, r14	; 0x06
    1d2c:	ff 82       	std	Y+7, r15	; 0x07
    1d2e:	ff ef       	ldi	r31, 0xFF	; 255
    1d30:	cf 1a       	sub	r12, r31
    1d32:	df 0a       	sbc	r13, r31
    1d34:	ef 0a       	sbc	r14, r31
    1d36:	ff 0a       	sbc	r15, r31
    1d38:	f8 01       	movw	r30, r16
    1d3a:	c0 82       	st	Z, r12
    1d3c:	d1 82       	std	Z+1, r13	; 0x01
    1d3e:	e2 82       	std	Z+2, r14	; 0x02
    1d40:	f3 82       	std	Z+3, r15	; 0x03
    1d42:	c7 01       	movw	r24, r14
    1d44:	b6 01       	movw	r22, r12
    1d46:	2a e0       	ldi	r18, 0x0A	; 10
    1d48:	30 e0       	ldi	r19, 0x00	; 0
    1d4a:	40 e0       	ldi	r20, 0x00	; 0
    1d4c:	50 e0       	ldi	r21, 0x00	; 0
    1d4e:	0e 94 51 21 	call	0x42a2	; 0x42a2 <__udivmodsi4>
    1d52:	61 30       	cpi	r22, 0x01	; 1
    1d54:	71 05       	cpc	r23, r1
    1d56:	81 05       	cpc	r24, r1
    1d58:	91 05       	cpc	r25, r1
    1d5a:	79 f4       	brne	.+30     	; 0x1d7a <lorawan_packets_new_packet+0xe0>
    1d5c:	b6 01       	movw	r22, r12
    1d5e:	8e e3       	ldi	r24, 0x3E	; 62
    1d60:	17 d6       	rcall	.+3118   	; 0x2990 <lorawan_write_otaa_information>
    1d62:	8c 2f       	mov	r24, r28
    1d64:	9d 2f       	mov	r25, r29
    1d66:	0b c0       	rjmp	.+22     	; 0x1d7e <lorawan_packets_new_packet+0xe4>
    1d68:	80 e0       	ldi	r24, 0x00	; 0
    1d6a:	90 e0       	ldi	r25, 0x00	; 0
    1d6c:	08 c0       	rjmp	.+16     	; 0x1d7e <lorawan_packets_new_packet+0xe4>
    1d6e:	80 e0       	ldi	r24, 0x00	; 0
    1d70:	90 e0       	ldi	r25, 0x00	; 0
    1d72:	05 c0       	rjmp	.+10     	; 0x1d7e <lorawan_packets_new_packet+0xe4>
    1d74:	80 e0       	ldi	r24, 0x00	; 0
    1d76:	90 e0       	ldi	r25, 0x00	; 0
    1d78:	02 c0       	rjmp	.+4      	; 0x1d7e <lorawan_packets_new_packet+0xe4>
    1d7a:	8c 2f       	mov	r24, r28
    1d7c:	9d 2f       	mov	r25, r29
    1d7e:	df 91       	pop	r29
    1d80:	cf 91       	pop	r28
    1d82:	1f 91       	pop	r17
    1d84:	0f 91       	pop	r16
    1d86:	ff 90       	pop	r15
    1d88:	ef 90       	pop	r14
    1d8a:	df 90       	pop	r13
    1d8c:	cf 90       	pop	r12
    1d8e:	bf 90       	pop	r11
    1d90:	af 90       	pop	r10
    1d92:	08 95       	ret

00001d94 <lorawan_packets_write_packet>:
    1d94:	5f 92       	push	r5
    1d96:	6f 92       	push	r6
    1d98:	7f 92       	push	r7
    1d9a:	8f 92       	push	r8
    1d9c:	9f 92       	push	r9
    1d9e:	af 92       	push	r10
    1da0:	bf 92       	push	r11
    1da2:	cf 92       	push	r12
    1da4:	df 92       	push	r13
    1da6:	ef 92       	push	r14
    1da8:	ff 92       	push	r15
    1daa:	0f 93       	push	r16
    1dac:	1f 93       	push	r17
    1dae:	cf 93       	push	r28
    1db0:	df 93       	push	r29
    1db2:	3c 01       	movw	r6, r24
    1db4:	eb 01       	movw	r28, r22
    1db6:	88 85       	ldd	r24, Y+8	; 0x08
    1db8:	88 23       	and	r24, r24
    1dba:	09 f4       	brne	.+2      	; 0x1dbe <lorawan_packets_write_packet+0x2a>
    1dbc:	6e c0       	rjmp	.+220    	; 0x1e9a <lorawan_packets_write_packet+0x106>
    1dbe:	98 81       	ld	r25, Y
    1dc0:	92 30       	cpi	r25, 0x02	; 2
    1dc2:	09 f0       	breq	.+2      	; 0x1dc6 <lorawan_packets_write_packet+0x32>
    1dc4:	65 c0       	rjmp	.+202    	; 0x1e90 <lorawan_packets_write_packet+0xfc>
    1dc6:	8b 85       	ldd	r24, Y+11	; 0x0b
    1dc8:	81 11       	cpse	r24, r1
    1dca:	05 c0       	rjmp	.+10     	; 0x1dd6 <lorawan_packets_write_packet+0x42>
    1dcc:	69 85       	ldd	r22, Y+9	; 0x09
    1dce:	7a 85       	ldd	r23, Y+10	; 0x0a
    1dd0:	67 2b       	or	r22, r23
    1dd2:	09 f4       	brne	.+2      	; 0x1dd6 <lorawan_packets_write_packet+0x42>
    1dd4:	62 c0       	rjmp	.+196    	; 0x1e9a <lorawan_packets_write_packet+0x106>
    1dd6:	12 2f       	mov	r17, r18
    1dd8:	4a 01       	movw	r8, r20
    1dda:	b6 de       	rcall	.-660    	; 0x1b48 <lorawan_packets_calculate_needed_buffer_length>
    1ddc:	f8 2e       	mov	r15, r24
    1dde:	18 17       	cp	r17, r24
    1de0:	08 f4       	brcc	.+2      	; 0x1de4 <lorawan_packets_write_packet+0x50>
    1de2:	58 c0       	rjmp	.+176    	; 0x1e94 <lorawan_packets_write_packet+0x100>
    1de4:	41 2f       	mov	r20, r17
    1de6:	50 e0       	ldi	r21, 0x00	; 0
    1de8:	60 e0       	ldi	r22, 0x00	; 0
    1dea:	70 e0       	ldi	r23, 0x00	; 0
    1dec:	c4 01       	movw	r24, r8
    1dee:	0e 94 25 23 	call	0x464a	; 0x464a <memset>
    1df2:	88 81       	ld	r24, Y
    1df4:	20 e2       	ldi	r18, 0x20	; 32
    1df6:	82 9f       	mul	r24, r18
    1df8:	c0 01       	movw	r24, r0
    1dfa:	11 24       	eor	r1, r1
    1dfc:	99 81       	ldd	r25, Y+1	; 0x01
    1dfe:	89 2b       	or	r24, r25
    1e00:	f4 01       	movw	r30, r8
    1e02:	80 83       	st	Z, r24
    1e04:	20 e0       	ldi	r18, 0x00	; 0
    1e06:	0e c0       	rjmp	.+28     	; 0x1e24 <lorawan_packets_write_packet+0x90>
    1e08:	82 2f       	mov	r24, r18
    1e0a:	90 e0       	ldi	r25, 0x00	; 0
    1e0c:	fc 01       	movw	r30, r24
    1e0e:	31 96       	adiw	r30, 0x01	; 1
    1e10:	e8 0d       	add	r30, r8
    1e12:	f9 1d       	adc	r31, r9
    1e14:	4a 81       	ldd	r20, Y+2	; 0x02
    1e16:	5b 81       	ldd	r21, Y+3	; 0x03
    1e18:	da 01       	movw	r26, r20
    1e1a:	a8 0f       	add	r26, r24
    1e1c:	b9 1f       	adc	r27, r25
    1e1e:	8c 91       	ld	r24, X
    1e20:	80 83       	st	Z, r24
    1e22:	2f 5f       	subi	r18, 0xFF	; 255
    1e24:	24 30       	cpi	r18, 0x04	; 4
    1e26:	80 f3       	brcs	.-32     	; 0x1e08 <lorawan_packets_write_packet+0x74>
    1e28:	f4 01       	movw	r30, r8
    1e2a:	15 82       	std	Z+5, r1	; 0x05
    1e2c:	6c 81       	ldd	r22, Y+4	; 0x04
    1e2e:	7d 81       	ldd	r23, Y+5	; 0x05
    1e30:	8e 81       	ldd	r24, Y+6	; 0x06
    1e32:	9f 81       	ldd	r25, Y+7	; 0x07
    1e34:	a4 01       	movw	r20, r8
    1e36:	4a 5f       	subi	r20, 0xFA	; 250
    1e38:	5f 4f       	sbci	r21, 0xFF	; 255
    1e3a:	c6 d1       	rcall	.+908    	; 0x21c8 <uint32_to_uint8_array>
    1e3c:	88 85       	ldd	r24, Y+8	; 0x08
    1e3e:	f4 01       	movw	r30, r8
    1e40:	80 87       	std	Z+8, r24	; 0x08
    1e42:	5b 84       	ldd	r5, Y+11	; 0x0b
    1e44:	69 85       	ldd	r22, Y+9	; 0x09
    1e46:	7a 85       	ldd	r23, Y+10	; 0x0a
    1e48:	ac 80       	ldd	r10, Y+4	; 0x04
    1e4a:	bd 80       	ldd	r11, Y+5	; 0x05
    1e4c:	ce 80       	ldd	r12, Y+6	; 0x06
    1e4e:	df 80       	ldd	r13, Y+7	; 0x07
    1e50:	0a 81       	ldd	r16, Y+2	; 0x02
    1e52:	1b 81       	ldd	r17, Y+3	; 0x03
    1e54:	e1 2c       	mov	r14, r1
    1e56:	93 01       	movw	r18, r6
    1e58:	2c 5d       	subi	r18, 0xDC	; 220
    1e5a:	3f 4f       	sbci	r19, 0xFF	; 255
    1e5c:	45 2d       	mov	r20, r5
    1e5e:	c4 01       	movw	r24, r8
    1e60:	09 96       	adiw	r24, 0x09	; 9
    1e62:	05 dd       	rcall	.-1526   	; 0x186e <lorawan_crypto_encrypt>
    1e64:	88 23       	and	r24, r24
    1e66:	c1 f0       	breq	.+48     	; 0x1e98 <lorawan_packets_write_packet+0x104>
    1e68:	93 01       	movw	r18, r6
    1e6a:	2c 5c       	subi	r18, 0xCC	; 204
    1e6c:	3f 4f       	sbci	r19, 0xFF	; 255
    1e6e:	85 2d       	mov	r24, r5
    1e70:	90 e0       	ldi	r25, 0x00	; 0
    1e72:	09 96       	adiw	r24, 0x09	; 9
    1e74:	ac 80       	ldd	r10, Y+4	; 0x04
    1e76:	bd 80       	ldd	r11, Y+5	; 0x05
    1e78:	ce 80       	ldd	r12, Y+6	; 0x06
    1e7a:	df 80       	ldd	r13, Y+7	; 0x07
    1e7c:	0a 81       	ldd	r16, Y+2	; 0x02
    1e7e:	1b 81       	ldd	r17, Y+3	; 0x03
    1e80:	49 e0       	ldi	r20, 0x09	; 9
    1e82:	45 0d       	add	r20, r5
    1e84:	b4 01       	movw	r22, r8
    1e86:	88 0d       	add	r24, r8
    1e88:	99 1d       	adc	r25, r9
    1e8a:	67 dc       	rcall	.-1842   	; 0x175a <lorawan_crypto_calculate_mic>
    1e8c:	8f 2d       	mov	r24, r15
    1e8e:	05 c0       	rjmp	.+10     	; 0x1e9a <lorawan_packets_write_packet+0x106>
    1e90:	80 e0       	ldi	r24, 0x00	; 0
    1e92:	03 c0       	rjmp	.+6      	; 0x1e9a <lorawan_packets_write_packet+0x106>
    1e94:	80 e0       	ldi	r24, 0x00	; 0
    1e96:	01 c0       	rjmp	.+2      	; 0x1e9a <lorawan_packets_write_packet+0x106>
    1e98:	80 e0       	ldi	r24, 0x00	; 0
    1e9a:	df 91       	pop	r29
    1e9c:	cf 91       	pop	r28
    1e9e:	1f 91       	pop	r17
    1ea0:	0f 91       	pop	r16
    1ea2:	ff 90       	pop	r15
    1ea4:	ef 90       	pop	r14
    1ea6:	df 90       	pop	r13
    1ea8:	cf 90       	pop	r12
    1eaa:	bf 90       	pop	r11
    1eac:	af 90       	pop	r10
    1eae:	9f 90       	pop	r9
    1eb0:	8f 90       	pop	r8
    1eb2:	7f 90       	pop	r7
    1eb4:	6f 90       	pop	r6
    1eb6:	5f 90       	pop	r5
    1eb8:	08 95       	ret

00001eba <lorawan_packets_write_otaa>:
    1eba:	ef 92       	push	r14
    1ebc:	ff 92       	push	r15
    1ebe:	0f 93       	push	r16
    1ec0:	1f 93       	push	r17
    1ec2:	cf 93       	push	r28
    1ec4:	df 93       	push	r29
    1ec6:	8c 01       	movw	r16, r24
    1ec8:	eb 01       	movw	r28, r22
    1eca:	8b 85       	ldd	r24, Y+11	; 0x0b
    1ecc:	81 11       	cpse	r24, r1
    1ece:	04 c0       	rjmp	.+8      	; 0x1ed8 <lorawan_packets_write_otaa+0x1e>
    1ed0:	29 85       	ldd	r18, Y+9	; 0x09
    1ed2:	3a 85       	ldd	r19, Y+10	; 0x0a
    1ed4:	23 2b       	or	r18, r19
    1ed6:	b1 f1       	breq	.+108    	; 0x1f44 <lorawan_packets_write_otaa+0x8a>
    1ed8:	87 e1       	ldi	r24, 0x17	; 23
    1eda:	fa 01       	movw	r30, r20
    1edc:	11 92       	st	Z+, r1
    1ede:	8a 95       	dec	r24
    1ee0:	e9 f7       	brne	.-6      	; 0x1edc <lorawan_packets_write_otaa+0x22>
    1ee2:	fa 01       	movw	r30, r20
    1ee4:	10 82       	st	Z, r1
    1ee6:	90 e0       	ldi	r25, 0x00	; 0
    1ee8:	0d c0       	rjmp	.+26     	; 0x1f04 <lorawan_packets_write_otaa+0x4a>
    1eea:	29 2f       	mov	r18, r25
    1eec:	30 e0       	ldi	r19, 0x00	; 0
    1eee:	f9 01       	movw	r30, r18
    1ef0:	31 96       	adiw	r30, 0x01	; 1
    1ef2:	e4 0f       	add	r30, r20
    1ef4:	f5 1f       	adc	r31, r21
    1ef6:	a9 85       	ldd	r26, Y+9	; 0x09
    1ef8:	ba 85       	ldd	r27, Y+10	; 0x0a
    1efa:	a2 0f       	add	r26, r18
    1efc:	b3 1f       	adc	r27, r19
    1efe:	2c 91       	ld	r18, X
    1f00:	20 83       	st	Z, r18
    1f02:	9f 5f       	subi	r25, 0xFF	; 255
    1f04:	92 31       	cpi	r25, 0x12	; 18
    1f06:	88 f3       	brcs	.-30     	; 0x1eea <lorawan_packets_write_otaa+0x30>
    1f08:	7a 01       	movw	r14, r20
    1f0a:	e8 01       	movw	r28, r16
    1f0c:	84 e0       	ldi	r24, 0x04	; 4
    1f0e:	90 e0       	ldi	r25, 0x00	; 0
    1f10:	0e 94 95 21 	call	0x432a	; 0x432a <malloc>
    1f14:	8c 01       	movw	r16, r24
    1f16:	00 97       	sbiw	r24, 0x00	; 0
    1f18:	a1 f0       	breq	.+40     	; 0x1f42 <lorawan_packets_write_otaa+0x88>
    1f1a:	be 01       	movw	r22, r28
    1f1c:	64 5f       	subi	r22, 0xF4	; 244
    1f1e:	7f 4f       	sbci	r23, 0xFF	; 255
    1f20:	ac 01       	movw	r20, r24
    1f22:	c7 01       	movw	r24, r14
    1f24:	55 db       	rcall	.-2390   	; 0x15d0 <lorawan_crypto_otaa_mic>
    1f26:	f8 01       	movw	r30, r16
    1f28:	80 81       	ld	r24, Z
    1f2a:	91 81       	ldd	r25, Z+1	; 0x01
    1f2c:	f7 01       	movw	r30, r14
    1f2e:	94 8b       	std	Z+20, r25	; 0x14
    1f30:	83 8b       	std	Z+19, r24	; 0x13
    1f32:	f8 01       	movw	r30, r16
    1f34:	82 81       	ldd	r24, Z+2	; 0x02
    1f36:	93 81       	ldd	r25, Z+3	; 0x03
    1f38:	f7 01       	movw	r30, r14
    1f3a:	96 8b       	std	Z+22, r25	; 0x16
    1f3c:	85 8b       	std	Z+21, r24	; 0x15
    1f3e:	87 e1       	ldi	r24, 0x17	; 23
    1f40:	01 c0       	rjmp	.+2      	; 0x1f44 <lorawan_packets_write_otaa+0x8a>
    1f42:	80 e0       	ldi	r24, 0x00	; 0
    1f44:	df 91       	pop	r29
    1f46:	cf 91       	pop	r28
    1f48:	1f 91       	pop	r17
    1f4a:	0f 91       	pop	r16
    1f4c:	ff 90       	pop	r15
    1f4e:	ef 90       	pop	r14
    1f50:	08 95       	ret

00001f52 <lorawan_packets_read_packet>:
    1f52:	2f 92       	push	r2
    1f54:	3f 92       	push	r3
    1f56:	4f 92       	push	r4
    1f58:	5f 92       	push	r5
    1f5a:	6f 92       	push	r6
    1f5c:	7f 92       	push	r7
    1f5e:	8f 92       	push	r8
    1f60:	9f 92       	push	r9
    1f62:	af 92       	push	r10
    1f64:	bf 92       	push	r11
    1f66:	cf 92       	push	r12
    1f68:	df 92       	push	r13
    1f6a:	ef 92       	push	r14
    1f6c:	ff 92       	push	r15
    1f6e:	0f 93       	push	r16
    1f70:	1f 93       	push	r17
    1f72:	cf 93       	push	r28
    1f74:	df 93       	push	r29
    1f76:	cd b7       	in	r28, 0x3d	; 61
    1f78:	de b7       	in	r29, 0x3e	; 62
    1f7a:	28 97       	sbiw	r28, 0x08	; 8
    1f7c:	0f b6       	in	r0, 0x3f	; 63
    1f7e:	f8 94       	cli
    1f80:	de bf       	out	0x3e, r29	; 62
    1f82:	0f be       	out	0x3f, r0	; 63
    1f84:	cd bf       	out	0x3d, r28	; 61
    1f86:	9e 83       	std	Y+6, r25	; 0x06
    1f88:	8d 83       	std	Y+5, r24	; 0x05
    1f8a:	3b 01       	movw	r6, r22
    1f8c:	f4 2e       	mov	r15, r20
    1f8e:	81 e0       	ldi	r24, 0x01	; 1
    1f90:	db dd       	rcall	.-1098   	; 0x1b48 <lorawan_packets_calculate_needed_buffer_length>
    1f92:	f8 16       	cp	r15, r24
    1f94:	08 f4       	brcc	.+2      	; 0x1f98 <lorawan_packets_read_packet+0x46>
    1f96:	c9 c0       	rjmp	.+402    	; 0x212a <lorawan_packets_read_packet+0x1d8>
    1f98:	80 e1       	ldi	r24, 0x10	; 16
    1f9a:	90 e0       	ldi	r25, 0x00	; 0
    1f9c:	0e 94 95 21 	call	0x432a	; 0x432a <malloc>
    1fa0:	4c 01       	movw	r8, r24
    1fa2:	89 2b       	or	r24, r25
    1fa4:	09 f4       	brne	.+2      	; 0x1fa8 <lorawan_packets_read_packet+0x56>
    1fa6:	c4 c0       	rjmp	.+392    	; 0x2130 <lorawan_packets_read_packet+0x1de>
    1fa8:	80 e1       	ldi	r24, 0x10	; 16
    1faa:	d4 01       	movw	r26, r8
    1fac:	1d 92       	st	X+, r1
    1fae:	8a 95       	dec	r24
    1fb0:	e9 f7       	brne	.-6      	; 0x1fac <lorawan_packets_read_packet+0x5a>
    1fb2:	f3 01       	movw	r30, r6
    1fb4:	90 81       	ld	r25, Z
    1fb6:	89 2f       	mov	r24, r25
    1fb8:	82 95       	swap	r24
    1fba:	86 95       	lsr	r24
    1fbc:	87 70       	andi	r24, 0x07	; 7
    1fbe:	d4 01       	movw	r26, r8
    1fc0:	8c 93       	st	X, r24
    1fc2:	11 96       	adiw	r26, 0x01	; 1
    1fc4:	9c 93       	st	X, r25
    1fc6:	83 30       	cpi	r24, 0x03	; 3
    1fc8:	39 f0       	breq	.+14     	; 0x1fd8 <lorawan_packets_read_packet+0x86>
    1fca:	81 30       	cpi	r24, 0x01	; 1
    1fcc:	29 f0       	breq	.+10     	; 0x1fd8 <lorawan_packets_read_packet+0x86>
    1fce:	c4 01       	movw	r24, r8
    1fd0:	bd dd       	rcall	.-1158   	; 0x1b4c <lorawan_packets_delete_packet>
    1fd2:	80 e0       	ldi	r24, 0x00	; 0
    1fd4:	90 e0       	ldi	r25, 0x00	; 0
    1fd6:	b1 c0       	rjmp	.+354    	; 0x213a <lorawan_packets_read_packet+0x1e8>
    1fd8:	c3 01       	movw	r24, r6
    1fda:	01 96       	adiw	r24, 0x01	; 1
    1fdc:	c7 d0       	rcall	.+398    	; 0x216c <uint8_array_to_uint32>
    1fde:	f4 01       	movw	r30, r8
    1fe0:	73 83       	std	Z+3, r23	; 0x03
    1fe2:	62 83       	std	Z+2, r22	; 0x02
    1fe4:	0d 81       	ldd	r16, Y+5	; 0x05
    1fe6:	1e 81       	ldd	r17, Y+6	; 0x06
    1fe8:	08 5f       	subi	r16, 0xF8	; 248
    1fea:	1f 4f       	sbci	r17, 0xFF	; 255
    1fec:	06 17       	cp	r16, r22
    1fee:	17 07       	cpc	r17, r23
    1ff0:	69 f0       	breq	.+26     	; 0x200c <lorawan_packets_read_packet+0xba>
    1ff2:	8d ed       	ldi	r24, 0xDD	; 221
    1ff4:	92 e0       	ldi	r25, 0x02	; 2
    1ff6:	9f 93       	push	r25
    1ff8:	8f 93       	push	r24
    1ffa:	0e 94 74 1f 	call	0x3ee8	; 0x3ee8 <uart_put>
    1ffe:	c4 01       	movw	r24, r8
    2000:	a5 dd       	rcall	.-1206   	; 0x1b4c <lorawan_packets_delete_packet>
    2002:	0f 90       	pop	r0
    2004:	0f 90       	pop	r0
    2006:	80 e0       	ldi	r24, 0x00	; 0
    2008:	90 e0       	ldi	r25, 0x00	; 0
    200a:	97 c0       	rjmp	.+302    	; 0x213a <lorawan_packets_read_packet+0x1e8>
    200c:	d3 01       	movw	r26, r6
    200e:	18 96       	adiw	r26, 0x08	; 8
    2010:	8c 91       	ld	r24, X
    2012:	f4 01       	movw	r30, r8
    2014:	80 87       	std	Z+8, r24	; 0x08
    2016:	ad 81       	ldd	r26, Y+5	; 0x05
    2018:	be 81       	ldd	r27, Y+6	; 0x06
    201a:	14 96       	adiw	r26, 0x04	; 4
    201c:	2d 90       	ld	r2, X+
    201e:	3d 90       	ld	r3, X+
    2020:	4d 90       	ld	r4, X+
    2022:	5c 90       	ld	r5, X
    2024:	17 97       	sbiw	r26, 0x07	; 7
    2026:	c3 01       	movw	r24, r6
    2028:	06 96       	adiw	r24, 0x06	; 6
    202a:	d4 d0       	rcall	.+424    	; 0x21d4 <uint8_array_to_uint16>
    202c:	9c 01       	movw	r18, r24
    202e:	22 19       	sub	r18, r2
    2030:	33 09       	sbc	r19, r3
    2032:	21 30       	cpi	r18, 0x01	; 1
    2034:	30 44       	sbci	r19, 0x40	; 64
    2036:	28 f0       	brcs	.+10     	; 0x2042 <lorawan_packets_read_packet+0xf0>
    2038:	c4 01       	movw	r24, r8
    203a:	88 dd       	rcall	.-1264   	; 0x1b4c <lorawan_packets_delete_packet>
    203c:	80 e0       	ldi	r24, 0x00	; 0
    203e:	90 e0       	ldi	r25, 0x00	; 0
    2040:	7c c0       	rjmp	.+248    	; 0x213a <lorawan_packets_read_packet+0x1e8>
    2042:	b2 01       	movw	r22, r4
    2044:	a1 01       	movw	r20, r2
    2046:	44 27       	eor	r20, r20
    2048:	55 27       	eor	r21, r21
    204a:	1a 01       	movw	r2, r20
    204c:	2b 01       	movw	r4, r22
    204e:	28 0e       	add	r2, r24
    2050:	39 1e       	adc	r3, r25
    2052:	41 1c       	adc	r4, r1
    2054:	51 1c       	adc	r5, r1
    2056:	f4 01       	movw	r30, r8
    2058:	24 82       	std	Z+4, r2	; 0x04
    205a:	35 82       	std	Z+5, r3	; 0x05
    205c:	46 82       	std	Z+6, r4	; 0x06
    205e:	57 82       	std	Z+7, r5	; 0x07
    2060:	ef 2d       	mov	r30, r15
    2062:	f0 e0       	ldi	r31, 0x00	; 0
    2064:	34 97       	sbiw	r30, 0x04	; 4
    2066:	e6 0d       	add	r30, r6
    2068:	f7 1d       	adc	r31, r7
    206a:	80 81       	ld	r24, Z
    206c:	91 81       	ldd	r25, Z+1	; 0x01
    206e:	d4 01       	movw	r26, r8
    2070:	1d 96       	adiw	r26, 0x0d	; 13
    2072:	9c 93       	st	X, r25
    2074:	8e 93       	st	-X, r24
    2076:	1c 97       	sbiw	r26, 0x0c	; 12
    2078:	82 81       	ldd	r24, Z+2	; 0x02
    207a:	93 81       	ldd	r25, Z+3	; 0x03
    207c:	f4 01       	movw	r30, r8
    207e:	3c 96       	adiw	r30, 0x0c	; 12
    2080:	f8 87       	std	Y+8, r31	; 0x08
    2082:	ef 83       	std	Y+7, r30	; 0x07
    2084:	93 83       	std	Z+3, r25	; 0x03
    2086:	82 83       	std	Z+2, r24	; 0x02
    2088:	62 01       	movw	r12, r4
    208a:	51 01       	movw	r10, r2
    208c:	ee 24       	eor	r14, r14
    208e:	e3 94       	inc	r14
    2090:	2d 81       	ldd	r18, Y+5	; 0x05
    2092:	3e 81       	ldd	r19, Y+6	; 0x06
    2094:	2c 5c       	subi	r18, 0xCC	; 204
    2096:	3f 4f       	sbci	r19, 0xFF	; 255
    2098:	4c ef       	ldi	r20, 0xFC	; 252
    209a:	4f 0d       	add	r20, r15
    209c:	b3 01       	movw	r22, r6
    209e:	ce 01       	movw	r24, r28
    20a0:	01 96       	adiw	r24, 0x01	; 1
    20a2:	5b db       	rcall	.-2378   	; 0x175a <lorawan_crypto_calculate_mic>
    20a4:	44 e0       	ldi	r20, 0x04	; 4
    20a6:	50 e0       	ldi	r21, 0x00	; 0
    20a8:	6f 81       	ldd	r22, Y+7	; 0x07
    20aa:	78 85       	ldd	r23, Y+8	; 0x08
    20ac:	ce 01       	movw	r24, r28
    20ae:	01 96       	adiw	r24, 0x01	; 1
    20b0:	0e 94 0f 23 	call	0x461e	; 0x461e <memcmp>
    20b4:	89 2b       	or	r24, r25
    20b6:	29 f0       	breq	.+10     	; 0x20c2 <lorawan_packets_read_packet+0x170>
    20b8:	c4 01       	movw	r24, r8
    20ba:	48 dd       	rcall	.-1392   	; 0x1b4c <lorawan_packets_delete_packet>
    20bc:	80 e0       	ldi	r24, 0x00	; 0
    20be:	90 e0       	ldi	r25, 0x00	; 0
    20c0:	3c c0       	rjmp	.+120    	; 0x213a <lorawan_packets_read_packet+0x1e8>
    20c2:	d2 01       	movw	r26, r4
    20c4:	c1 01       	movw	r24, r2
    20c6:	01 96       	adiw	r24, 0x01	; 1
    20c8:	a1 1d       	adc	r26, r1
    20ca:	b1 1d       	adc	r27, r1
    20cc:	ed 81       	ldd	r30, Y+5	; 0x05
    20ce:	fe 81       	ldd	r31, Y+6	; 0x06
    20d0:	84 83       	std	Z+4, r24	; 0x04
    20d2:	95 83       	std	Z+5, r25	; 0x05
    20d4:	a6 83       	std	Z+6, r26	; 0x06
    20d6:	b7 83       	std	Z+7, r27	; 0x07
    20d8:	f3 ef       	ldi	r31, 0xF3	; 243
    20da:	ff 0e       	add	r15, r31
    20dc:	d4 01       	movw	r26, r8
    20de:	1b 96       	adiw	r26, 0x0b	; 11
    20e0:	fc 92       	st	X, r15
    20e2:	8f 2d       	mov	r24, r15
    20e4:	90 e0       	ldi	r25, 0x00	; 0
    20e6:	0e 94 95 21 	call	0x432a	; 0x432a <malloc>
    20ea:	f4 01       	movw	r30, r8
    20ec:	92 87       	std	Z+10, r25	; 0x0a
    20ee:	81 87       	std	Z+9, r24	; 0x09
    20f0:	00 97       	sbiw	r24, 0x00	; 0
    20f2:	29 f4       	brne	.+10     	; 0x20fe <lorawan_packets_read_packet+0x1ac>
    20f4:	c4 01       	movw	r24, r8
    20f6:	2a dd       	rcall	.-1452   	; 0x1b4c <lorawan_packets_delete_packet>
    20f8:	80 e0       	ldi	r24, 0x00	; 0
    20fa:	90 e0       	ldi	r25, 0x00	; 0
    20fc:	1e c0       	rjmp	.+60     	; 0x213a <lorawan_packets_read_packet+0x1e8>
    20fe:	2d 81       	ldd	r18, Y+5	; 0x05
    2100:	3e 81       	ldd	r19, Y+6	; 0x06
    2102:	2c 5d       	subi	r18, 0xDC	; 220
    2104:	3f 4f       	sbci	r19, 0xFF	; 255
    2106:	02 81       	ldd	r16, Z+2	; 0x02
    2108:	13 81       	ldd	r17, Z+3	; 0x03
    210a:	b3 01       	movw	r22, r6
    210c:	67 5f       	subi	r22, 0xF7	; 247
    210e:	7f 4f       	sbci	r23, 0xFF	; 255
    2110:	62 01       	movw	r12, r4
    2112:	51 01       	movw	r10, r2
    2114:	ee 24       	eor	r14, r14
    2116:	e3 94       	inc	r14
    2118:	4f 2d       	mov	r20, r15
    211a:	a9 db       	rcall	.-2222   	; 0x186e <lorawan_crypto_encrypt>
    211c:	81 11       	cpse	r24, r1
    211e:	0b c0       	rjmp	.+22     	; 0x2136 <lorawan_packets_read_packet+0x1e4>
    2120:	c4 01       	movw	r24, r8
    2122:	14 dd       	rcall	.-1496   	; 0x1b4c <lorawan_packets_delete_packet>
    2124:	80 e0       	ldi	r24, 0x00	; 0
    2126:	90 e0       	ldi	r25, 0x00	; 0
    2128:	08 c0       	rjmp	.+16     	; 0x213a <lorawan_packets_read_packet+0x1e8>
    212a:	80 e0       	ldi	r24, 0x00	; 0
    212c:	90 e0       	ldi	r25, 0x00	; 0
    212e:	05 c0       	rjmp	.+10     	; 0x213a <lorawan_packets_read_packet+0x1e8>
    2130:	80 e0       	ldi	r24, 0x00	; 0
    2132:	90 e0       	ldi	r25, 0x00	; 0
    2134:	02 c0       	rjmp	.+4      	; 0x213a <lorawan_packets_read_packet+0x1e8>
    2136:	88 2d       	mov	r24, r8
    2138:	99 2d       	mov	r25, r9
    213a:	28 96       	adiw	r28, 0x08	; 8
    213c:	0f b6       	in	r0, 0x3f	; 63
    213e:	f8 94       	cli
    2140:	de bf       	out	0x3e, r29	; 62
    2142:	0f be       	out	0x3f, r0	; 63
    2144:	cd bf       	out	0x3d, r28	; 61
    2146:	df 91       	pop	r29
    2148:	cf 91       	pop	r28
    214a:	1f 91       	pop	r17
    214c:	0f 91       	pop	r16
    214e:	ff 90       	pop	r15
    2150:	ef 90       	pop	r14
    2152:	df 90       	pop	r13
    2154:	cf 90       	pop	r12
    2156:	bf 90       	pop	r11
    2158:	af 90       	pop	r10
    215a:	9f 90       	pop	r9
    215c:	8f 90       	pop	r8
    215e:	7f 90       	pop	r7
    2160:	6f 90       	pop	r6
    2162:	5f 90       	pop	r5
    2164:	4f 90       	pop	r4
    2166:	3f 90       	pop	r3
    2168:	2f 90       	pop	r2
    216a:	08 95       	ret

0000216c <uint8_array_to_uint32>:
    216c:	0f 93       	push	r16
    216e:	1f 93       	push	r17
    2170:	fc 01       	movw	r30, r24
    2172:	20 81       	ld	r18, Z
    2174:	61 81       	ldd	r22, Z+1	; 0x01
    2176:	86 2f       	mov	r24, r22
    2178:	90 e0       	ldi	r25, 0x00	; 0
    217a:	a0 e0       	ldi	r26, 0x00	; 0
    217c:	b0 e0       	ldi	r27, 0x00	; 0
    217e:	ba 2f       	mov	r27, r26
    2180:	a9 2f       	mov	r26, r25
    2182:	98 2f       	mov	r25, r24
    2184:	88 27       	eor	r24, r24
    2186:	82 2b       	or	r24, r18
    2188:	02 81       	ldd	r16, Z+2	; 0x02
    218a:	10 e0       	ldi	r17, 0x00	; 0
    218c:	20 e0       	ldi	r18, 0x00	; 0
    218e:	30 e0       	ldi	r19, 0x00	; 0
    2190:	98 01       	movw	r18, r16
    2192:	11 27       	eor	r17, r17
    2194:	00 27       	eor	r16, r16
    2196:	ac 01       	movw	r20, r24
    2198:	bd 01       	movw	r22, r26
    219a:	40 2b       	or	r20, r16
    219c:	51 2b       	or	r21, r17
    219e:	62 2b       	or	r22, r18
    21a0:	73 2b       	or	r23, r19
    21a2:	83 81       	ldd	r24, Z+3	; 0x03
    21a4:	90 e0       	ldi	r25, 0x00	; 0
    21a6:	a0 e0       	ldi	r26, 0x00	; 0
    21a8:	b0 e0       	ldi	r27, 0x00	; 0
    21aa:	b8 2f       	mov	r27, r24
    21ac:	aa 27       	eor	r26, r26
    21ae:	99 27       	eor	r25, r25
    21b0:	88 27       	eor	r24, r24
    21b2:	8a 01       	movw	r16, r20
    21b4:	9b 01       	movw	r18, r22
    21b6:	08 2b       	or	r16, r24
    21b8:	19 2b       	or	r17, r25
    21ba:	2a 2b       	or	r18, r26
    21bc:	3b 2b       	or	r19, r27
    21be:	c9 01       	movw	r24, r18
    21c0:	b8 01       	movw	r22, r16
    21c2:	1f 91       	pop	r17
    21c4:	0f 91       	pop	r16
    21c6:	08 95       	ret

000021c8 <uint32_to_uint8_array>:
    21c8:	fa 01       	movw	r30, r20
    21ca:	60 83       	st	Z, r22
    21cc:	71 83       	std	Z+1, r23	; 0x01
    21ce:	82 83       	std	Z+2, r24	; 0x02
    21d0:	93 83       	std	Z+3, r25	; 0x03
    21d2:	08 95       	ret

000021d4 <uint8_array_to_uint16>:
    21d4:	fc 01       	movw	r30, r24
    21d6:	20 81       	ld	r18, Z
    21d8:	81 81       	ldd	r24, Z+1	; 0x01
    21da:	90 e0       	ldi	r25, 0x00	; 0
    21dc:	98 2f       	mov	r25, r24
    21de:	88 27       	eor	r24, r24
    21e0:	82 2b       	or	r24, r18
    21e2:	08 95       	ret

000021e4 <packet_received>:
	return received_data_length != 0;
}

lorawan_antenna_state lorawan_get_antenna_state() {
	return antenna_state;
}
    21e4:	0e 94 d4 1e 	call	0x3da8	; 0x3da8 <timer_stop>
    21e8:	10 92 20 05 	sts	0x0520, r1	; 0x800520 <LORAWAN_TIMEOUT_CONNECTION>
    21ec:	80 91 26 05 	lds	r24, 0x0526	; 0x800526 <received_data>
    21f0:	90 91 27 05 	lds	r25, 0x0527	; 0x800527 <received_data+0x1>
    21f4:	00 97       	sbiw	r24, 0x00	; 0
    21f6:	11 f0       	breq	.+4      	; 0x21fc <packet_received+0x18>
    21f8:	0e 94 2d 22 	call	0x445a	; 0x445a <free>
    21fc:	86 e2       	ldi	r24, 0x26	; 38
    21fe:	95 e0       	ldi	r25, 0x05	; 5
    2200:	a5 d6       	rcall	.+3402   	; 0x2f4c <rfm95_read_packet>
    2202:	80 93 25 05 	sts	0x0525, r24	; 0x800525 <received_data_length>
    2206:	10 92 28 05 	sts	0x0528, r1	; 0x800528 <antenna_state>
    220a:	e0 91 29 05 	lds	r30, 0x0529	; 0x800529 <callback>
    220e:	f0 91 2a 05 	lds	r31, 0x052A	; 0x80052a <callback+0x1>
    2212:	30 97       	sbiw	r30, 0x00	; 0
    2214:	09 f0       	breq	.+2      	; 0x2218 <packet_received+0x34>
    2216:	09 95       	icall
    2218:	10 92 2a 05 	sts	0x052A, r1	; 0x80052a <callback+0x1>
    221c:	10 92 29 05 	sts	0x0529, r1	; 0x800529 <callback>
    2220:	08 95       	ret

00002222 <lorawan_otaa_downlink>:
    2222:	ef 92       	push	r14
    2224:	ff 92       	push	r15
    2226:	0f 93       	push	r16
    2228:	1f 93       	push	r17
    222a:	cf 93       	push	r28
    222c:	df 93       	push	r29
    222e:	cd b7       	in	r28, 0x3d	; 61
    2230:	de b7       	in	r29, 0x3e	; 62
    2232:	e8 97       	sbiw	r28, 0x38	; 56
    2234:	0f b6       	in	r0, 0x3f	; 63
    2236:	f8 94       	cli
    2238:	de bf       	out	0x3e, r29	; 62
    223a:	0f be       	out	0x3f, r0	; 63
    223c:	cd bf       	out	0x3d, r28	; 61
    223e:	0e 94 d4 1e 	call	0x3da8	; 0x3da8 <timer_stop>
    2242:	fe 01       	movw	r30, r28
    2244:	31 96       	adiw	r30, 0x01	; 1
    2246:	80 e2       	ldi	r24, 0x20	; 32
    2248:	df 01       	movw	r26, r30
    224a:	1d 92       	st	X+, r1
    224c:	8a 95       	dec	r24
    224e:	e9 f7       	brne	.-6      	; 0x224a <lorawan_otaa_downlink+0x28>
    2250:	85 e0       	ldi	r24, 0x05	; 5
    2252:	89 83       	std	Y+1, r24	; 0x01
    2254:	86 e2       	ldi	r24, 0x26	; 38
    2256:	95 e0       	ldi	r25, 0x05	; 5
    2258:	79 d6       	rcall	.+3314   	; 0x2f4c <rfm95_read_packet>
    225a:	80 93 25 05 	sts	0x0525, r24	; 0x800525 <received_data_length>
    225e:	10 92 28 05 	sts	0x0528, r1	; 0x800528 <antenna_state>
    2262:	83 ef       	ldi	r24, 0xF3	; 243
    2264:	92 e0       	ldi	r25, 0x02	; 2
    2266:	0e 94 4c 1f 	call	0x3e98	; 0x3e98 <uart_puts>
    226a:	10 e0       	ldi	r17, 0x00	; 0
    226c:	1b c0       	rjmp	.+54     	; 0x22a4 <lorawan_otaa_downlink+0x82>
    226e:	84 e0       	ldi	r24, 0x04	; 4
    2270:	90 e0       	ldi	r25, 0x00	; 0
    2272:	0e 94 95 21 	call	0x432a	; 0x432a <malloc>
    2276:	7c 01       	movw	r14, r24
    2278:	e0 91 26 05 	lds	r30, 0x0526	; 0x800526 <received_data>
    227c:	f0 91 27 05 	lds	r31, 0x0527	; 0x800527 <received_data+0x1>
    2280:	e1 0f       	add	r30, r17
    2282:	f1 1d       	adc	r31, r1
    2284:	80 81       	ld	r24, Z
    2286:	40 e1       	ldi	r20, 0x10	; 16
    2288:	b7 01       	movw	r22, r14
    228a:	90 e0       	ldi	r25, 0x00	; 0
    228c:	0e 94 2c 23 	call	0x4658	; 0x4658 <__itoa_ncheck>
    2290:	c7 01       	movw	r24, r14
    2292:	0e 94 4c 1f 	call	0x3e98	; 0x3e98 <uart_puts>
    2296:	80 e2       	ldi	r24, 0x20	; 32
    2298:	0e 94 45 1f 	call	0x3e8a	; 0x3e8a <uart_putc>
    229c:	c7 01       	movw	r24, r14
    229e:	0e 94 2d 22 	call	0x445a	; 0x445a <free>
    22a2:	1f 5f       	subi	r17, 0xFF	; 255
    22a4:	80 91 25 05 	lds	r24, 0x0525	; 0x800525 <received_data_length>
    22a8:	18 17       	cp	r17, r24
    22aa:	08 f3       	brcs	.-62     	; 0x226e <lorawan_otaa_downlink+0x4c>
    22ac:	8a e1       	ldi	r24, 0x1A	; 26
    22ae:	92 e0       	ldi	r25, 0x02	; 2
    22b0:	0e 94 4c 1f 	call	0x3e98	; 0x3e98 <uart_puts>
    22b4:	bf e3       	ldi	r27, 0x3F	; 63
    22b6:	ed e0       	ldi	r30, 0x0D	; 13
    22b8:	f3 e0       	ldi	r31, 0x03	; 3
    22ba:	b1 50       	subi	r27, 0x01	; 1
    22bc:	e0 40       	sbci	r30, 0x00	; 0
    22be:	f0 40       	sbci	r31, 0x00	; 0
    22c0:	e1 f7       	brne	.-8      	; 0x22ba <lorawan_otaa_downlink+0x98>
    22c2:	00 c0       	rjmp	.+0      	; 0x22c4 <lorawan_otaa_downlink+0xa2>
    22c4:	00 00       	nop
    22c6:	20 91 25 05 	lds	r18, 0x0525	; 0x800525 <received_data_length>
    22ca:	30 e0       	ldi	r19, 0x00	; 0
    22cc:	21 50       	subi	r18, 0x01	; 1
    22ce:	31 09       	sbc	r19, r1
    22d0:	60 91 26 05 	lds	r22, 0x0526	; 0x800526 <received_data>
    22d4:	70 91 27 05 	lds	r23, 0x0527	; 0x800527 <received_data+0x1>
    22d8:	6f 5f       	subi	r22, 0xFF	; 255
    22da:	7f 4f       	sbci	r23, 0xFF	; 255
    22dc:	41 e1       	ldi	r20, 0x11	; 17
    22de:	51 e0       	ldi	r21, 0x01	; 1
    22e0:	ce 01       	movw	r24, r28
    22e2:	01 96       	adiw	r24, 0x01	; 1
    22e4:	71 db       	rcall	.-2334   	; 0x19c8 <lorawan_otaa_encrypt>
    22e6:	2d e1       	ldi	r18, 0x1D	; 29
    22e8:	30 e0       	ldi	r19, 0x00	; 0
    22ea:	ae 01       	movw	r20, r28
    22ec:	4f 5d       	subi	r20, 0xDF	; 223
    22ee:	5f 4f       	sbci	r21, 0xFF	; 255
    22f0:	61 e1       	ldi	r22, 0x11	; 17
    22f2:	71 e0       	ldi	r23, 0x01	; 1
    22f4:	ce 01       	movw	r24, r28
    22f6:	01 96       	adiw	r24, 0x01	; 1
    22f8:	b9 d9       	rcall	.-3214   	; 0x166c <lorawan_crypto_otaa_mic_answer>
    22fa:	e0 91 25 05 	lds	r30, 0x0525	; 0x800525 <received_data_length>
    22fe:	f0 e0       	ldi	r31, 0x00	; 0
    2300:	35 97       	sbiw	r30, 0x05	; 5
    2302:	41 e0       	ldi	r20, 0x01	; 1
    2304:	50 e0       	ldi	r21, 0x00	; 0
    2306:	4c 0f       	add	r20, r28
    2308:	5d 1f       	adc	r21, r29
    230a:	e4 0f       	add	r30, r20
    230c:	f5 1f       	adc	r31, r21
    230e:	90 81       	ld	r25, Z
    2310:	89 a1       	ldd	r24, Y+33	; 0x21
    2312:	98 13       	cpse	r25, r24
    2314:	8a c1       	rjmp	.+788    	; 0x262a <lorawan_otaa_downlink+0x408>
    2316:	e0 91 25 05 	lds	r30, 0x0525	; 0x800525 <received_data_length>
    231a:	f0 e0       	ldi	r31, 0x00	; 0
    231c:	34 97       	sbiw	r30, 0x04	; 4
    231e:	e4 0f       	add	r30, r20
    2320:	f5 1f       	adc	r31, r21
    2322:	90 81       	ld	r25, Z
    2324:	8a a1       	ldd	r24, Y+34	; 0x22
    2326:	98 13       	cpse	r25, r24
    2328:	80 c1       	rjmp	.+768    	; 0x262a <lorawan_otaa_downlink+0x408>
    232a:	e0 91 25 05 	lds	r30, 0x0525	; 0x800525 <received_data_length>
    232e:	f0 e0       	ldi	r31, 0x00	; 0
    2330:	33 97       	sbiw	r30, 0x03	; 3
    2332:	e4 0f       	add	r30, r20
    2334:	f5 1f       	adc	r31, r21
    2336:	90 81       	ld	r25, Z
    2338:	8b a1       	ldd	r24, Y+35	; 0x23
    233a:	98 13       	cpse	r25, r24
    233c:	76 c1       	rjmp	.+748    	; 0x262a <lorawan_otaa_downlink+0x408>
    233e:	e0 91 25 05 	lds	r30, 0x0525	; 0x800525 <received_data_length>
    2342:	f0 e0       	ldi	r31, 0x00	; 0
    2344:	32 97       	sbiw	r30, 0x02	; 2
    2346:	e4 0f       	add	r30, r20
    2348:	f5 1f       	adc	r31, r21
    234a:	90 81       	ld	r25, Z
    234c:	8c a1       	ldd	r24, Y+36	; 0x24
    234e:	98 13       	cpse	r25, r24
    2350:	6c c1       	rjmp	.+728    	; 0x262a <lorawan_otaa_downlink+0x408>
    2352:	80 91 25 05 	lds	r24, 0x0525	; 0x800525 <received_data_length>
    2356:	81 32       	cpi	r24, 0x21	; 33
    2358:	c1 f0       	breq	.+48     	; 0x238a <lorawan_otaa_downlink+0x168>
    235a:	80 91 25 05 	lds	r24, 0x0525	; 0x800525 <received_data_length>
    235e:	81 31       	cpi	r24, 0x11	; 17
    2360:	09 f0       	breq	.+2      	; 0x2364 <lorawan_otaa_downlink+0x142>
    2362:	21 c1       	rjmp	.+578    	; 0x25a6 <lorawan_otaa_downlink+0x384>
    2364:	14 c0       	rjmp	.+40     	; 0x238e <lorawan_otaa_downlink+0x16c>
    2366:	28 2f       	mov	r18, r24
    2368:	30 e0       	ldi	r19, 0x00	; 0
    236a:	e1 e0       	ldi	r30, 0x01	; 1
    236c:	f0 e0       	ldi	r31, 0x00	; 0
    236e:	ec 0f       	add	r30, r28
    2370:	fd 1f       	adc	r31, r29
    2372:	e2 0f       	add	r30, r18
    2374:	f3 1f       	adc	r31, r19
    2376:	90 81       	ld	r25, Z
    2378:	e6 e3       	ldi	r30, 0x36	; 54
    237a:	f0 e0       	ldi	r31, 0x00	; 0
    237c:	ec 0f       	add	r30, r28
    237e:	fd 1f       	adc	r31, r29
    2380:	e2 0f       	add	r30, r18
    2382:	f3 1f       	adc	r31, r19
    2384:	90 83       	st	Z, r25
    2386:	8f 5f       	subi	r24, 0xFF	; 255
    2388:	03 c0       	rjmp	.+6      	; 0x2390 <lorawan_otaa_downlink+0x16e>
    238a:	80 e0       	ldi	r24, 0x00	; 0
    238c:	01 c0       	rjmp	.+2      	; 0x2390 <lorawan_otaa_downlink+0x16e>
    238e:	80 e0       	ldi	r24, 0x00	; 0
    2390:	83 30       	cpi	r24, 0x03	; 3
    2392:	48 f3       	brcs	.-46     	; 0x2366 <lorawan_otaa_downlink+0x144>
    2394:	80 e0       	ldi	r24, 0x00	; 0
    2396:	13 c0       	rjmp	.+38     	; 0x23be <lorawan_otaa_downlink+0x19c>
    2398:	28 2f       	mov	r18, r24
    239a:	30 e0       	ldi	r19, 0x00	; 0
    239c:	f9 01       	movw	r30, r18
    239e:	33 96       	adiw	r30, 0x03	; 3
    23a0:	a1 e0       	ldi	r26, 0x01	; 1
    23a2:	b0 e0       	ldi	r27, 0x00	; 0
    23a4:	ac 0f       	add	r26, r28
    23a6:	bd 1f       	adc	r27, r29
    23a8:	ea 0f       	add	r30, r26
    23aa:	fb 1f       	adc	r31, r27
    23ac:	90 81       	ld	r25, Z
    23ae:	e3 e3       	ldi	r30, 0x33	; 51
    23b0:	f0 e0       	ldi	r31, 0x00	; 0
    23b2:	ec 0f       	add	r30, r28
    23b4:	fd 1f       	adc	r31, r29
    23b6:	e2 0f       	add	r30, r18
    23b8:	f3 1f       	adc	r31, r19
    23ba:	90 83       	st	Z, r25
    23bc:	8f 5f       	subi	r24, 0xFF	; 255
    23be:	83 30       	cpi	r24, 0x03	; 3
    23c0:	58 f3       	brcs	.-42     	; 0x2398 <lorawan_otaa_downlink+0x176>
    23c2:	20 e0       	ldi	r18, 0x00	; 0
    23c4:	15 c0       	rjmp	.+42     	; 0x23f0 <lorawan_otaa_downlink+0x1ce>
    23c6:	82 2f       	mov	r24, r18
    23c8:	90 e0       	ldi	r25, 0x00	; 0
    23ca:	e9 e0       	ldi	r30, 0x09	; 9
    23cc:	f0 e0       	ldi	r31, 0x00	; 0
    23ce:	e8 1b       	sub	r30, r24
    23d0:	f9 0b       	sbc	r31, r25
    23d2:	41 e0       	ldi	r20, 0x01	; 1
    23d4:	50 e0       	ldi	r21, 0x00	; 0
    23d6:	4c 0f       	add	r20, r28
    23d8:	5d 1f       	adc	r21, r29
    23da:	e4 0f       	add	r30, r20
    23dc:	f5 1f       	adc	r31, r21
    23de:	30 81       	ld	r19, Z
    23e0:	e5 e2       	ldi	r30, 0x25	; 37
    23e2:	f0 e0       	ldi	r31, 0x00	; 0
    23e4:	ec 0f       	add	r30, r28
    23e6:	fd 1f       	adc	r31, r29
    23e8:	e8 0f       	add	r30, r24
    23ea:	f9 1f       	adc	r31, r25
    23ec:	30 83       	st	Z, r19
    23ee:	2f 5f       	subi	r18, 0xFF	; 255
    23f0:	24 30       	cpi	r18, 0x04	; 4
    23f2:	48 f3       	brcs	.-46     	; 0x23c6 <lorawan_otaa_downlink+0x1a4>
    23f4:	45 e0       	ldi	r20, 0x05	; 5
    23f6:	be 01       	movw	r22, r28
    23f8:	6a 5c       	subi	r22, 0xCA	; 202
    23fa:	7f 4f       	sbci	r23, 0xFF	; 255
    23fc:	80 91 2b 05 	lds	r24, 0x052B	; 0x80052b <app_number>
    2400:	0e 94 5b 02 	call	0x4b6	; 0x4b6 <eeprom_driver_write>
    2404:	44 e0       	ldi	r20, 0x04	; 4
    2406:	be 01       	movw	r22, r28
    2408:	6d 5c       	subi	r22, 0xCD	; 205
    240a:	7f 4f       	sbci	r23, 0xFF	; 255
    240c:	80 91 2b 05 	lds	r24, 0x052B	; 0x80052b <app_number>
    2410:	0e 94 5b 02 	call	0x4b6	; 0x4b6 <eeprom_driver_write>
    2414:	43 e0       	ldi	r20, 0x03	; 3
    2416:	be 01       	movw	r22, r28
    2418:	6b 5d       	subi	r22, 0xDB	; 219
    241a:	7f 4f       	sbci	r23, 0xFF	; 255
    241c:	80 91 2b 05 	lds	r24, 0x052B	; 0x80052b <app_number>
    2420:	0e 94 5b 02 	call	0x4b6	; 0x4b6 <eeprom_driver_write>
    2424:	0f 2e       	mov	r0, r31
    2426:	f9 e2       	ldi	r31, 0x29	; 41
    2428:	ef 2e       	mov	r14, r31
    242a:	f1 e0       	ldi	r31, 0x01	; 1
    242c:	ff 2e       	mov	r15, r31
    242e:	f0 2d       	mov	r31, r0
    2430:	09 e3       	ldi	r16, 0x39	; 57
    2432:	11 e0       	ldi	r17, 0x01	; 1
    2434:	21 e1       	ldi	r18, 0x11	; 17
    2436:	31 e0       	ldi	r19, 0x01	; 1
    2438:	41 e5       	ldi	r20, 0x51	; 81
    243a:	51 e0       	ldi	r21, 0x01	; 1
    243c:	be 01       	movw	r22, r28
    243e:	6d 5c       	subi	r22, 0xCD	; 205
    2440:	7f 4f       	sbci	r23, 0xFF	; 255
    2442:	ce 01       	movw	r24, r28
    2444:	c6 96       	adiw	r24, 0x36	; 54
    2446:	fc da       	rcall	.-2568   	; 0x1a40 <lorawan_compute_keys>
    2448:	8c ef       	ldi	r24, 0xFC	; 252
    244a:	92 e0       	ldi	r25, 0x02	; 2
    244c:	0e 94 4c 1f 	call	0x3e98	; 0x3e98 <uart_puts>
    2450:	10 e0       	ldi	r17, 0x00	; 0
    2452:	19 c0       	rjmp	.+50     	; 0x2486 <lorawan_otaa_downlink+0x264>
    2454:	84 e0       	ldi	r24, 0x04	; 4
    2456:	90 e0       	ldi	r25, 0x00	; 0
    2458:	0e 94 95 21 	call	0x432a	; 0x432a <malloc>
    245c:	7c 01       	movw	r14, r24
    245e:	e1 2f       	mov	r30, r17
    2460:	f0 e0       	ldi	r31, 0x00	; 0
    2462:	e3 5f       	subi	r30, 0xF3	; 243
    2464:	fe 4f       	sbci	r31, 0xFE	; 254
    2466:	84 a5       	ldd	r24, Z+44	; 0x2c
    2468:	40 e1       	ldi	r20, 0x10	; 16
    246a:	b7 01       	movw	r22, r14
    246c:	90 e0       	ldi	r25, 0x00	; 0
    246e:	0e 94 2c 23 	call	0x4658	; 0x4658 <__itoa_ncheck>
    2472:	c7 01       	movw	r24, r14
    2474:	0e 94 4c 1f 	call	0x3e98	; 0x3e98 <uart_puts>
    2478:	80 e2       	ldi	r24, 0x20	; 32
    247a:	0e 94 45 1f 	call	0x3e8a	; 0x3e8a <uart_putc>
    247e:	c7 01       	movw	r24, r14
    2480:	0e 94 2d 22 	call	0x445a	; 0x445a <free>
    2484:	1f 5f       	subi	r17, 0xFF	; 255
    2486:	10 31       	cpi	r17, 0x10	; 16
    2488:	28 f3       	brcs	.-54     	; 0x2454 <lorawan_otaa_downlink+0x232>
    248a:	8a e1       	ldi	r24, 0x1A	; 26
    248c:	92 e0       	ldi	r25, 0x02	; 2
    248e:	0e 94 4c 1f 	call	0x3e98	; 0x3e98 <uart_puts>
    2492:	86 e0       	ldi	r24, 0x06	; 6
    2494:	93 e0       	ldi	r25, 0x03	; 3
    2496:	0e 94 4c 1f 	call	0x3e98	; 0x3e98 <uart_puts>
    249a:	10 e0       	ldi	r17, 0x00	; 0
    249c:	19 c0       	rjmp	.+50     	; 0x24d0 <lorawan_otaa_downlink+0x2ae>
    249e:	84 e0       	ldi	r24, 0x04	; 4
    24a0:	90 e0       	ldi	r25, 0x00	; 0
    24a2:	0e 94 95 21 	call	0x432a	; 0x432a <malloc>
    24a6:	7c 01       	movw	r14, r24
    24a8:	e1 2f       	mov	r30, r17
    24aa:	f0 e0       	ldi	r31, 0x00	; 0
    24ac:	e3 5f       	subi	r30, 0xF3	; 243
    24ae:	fe 4f       	sbci	r31, 0xFE	; 254
    24b0:	84 8d       	ldd	r24, Z+28	; 0x1c
    24b2:	40 e1       	ldi	r20, 0x10	; 16
    24b4:	b7 01       	movw	r22, r14
    24b6:	90 e0       	ldi	r25, 0x00	; 0
    24b8:	0e 94 2c 23 	call	0x4658	; 0x4658 <__itoa_ncheck>
    24bc:	c7 01       	movw	r24, r14
    24be:	0e 94 4c 1f 	call	0x3e98	; 0x3e98 <uart_puts>
    24c2:	80 e2       	ldi	r24, 0x20	; 32
    24c4:	0e 94 45 1f 	call	0x3e8a	; 0x3e8a <uart_putc>
    24c8:	c7 01       	movw	r24, r14
    24ca:	0e 94 2d 22 	call	0x445a	; 0x445a <free>
    24ce:	1f 5f       	subi	r17, 0xFF	; 255
    24d0:	10 31       	cpi	r17, 0x10	; 16
    24d2:	28 f3       	brcs	.-54     	; 0x249e <lorawan_otaa_downlink+0x27c>
    24d4:	8a e1       	ldi	r24, 0x1A	; 26
    24d6:	92 e0       	ldi	r25, 0x02	; 2
    24d8:	0e 94 4c 1f 	call	0x3e98	; 0x3e98 <uart_puts>
    24dc:	80 e1       	ldi	r24, 0x10	; 16
    24de:	93 e0       	ldi	r25, 0x03	; 3
    24e0:	0e 94 4c 1f 	call	0x3e98	; 0x3e98 <uart_puts>
    24e4:	10 e0       	ldi	r17, 0x00	; 0
    24e6:	1b c0       	rjmp	.+54     	; 0x251e <lorawan_otaa_downlink+0x2fc>
    24e8:	84 e0       	ldi	r24, 0x04	; 4
    24ea:	90 e0       	ldi	r25, 0x00	; 0
    24ec:	0e 94 95 21 	call	0x432a	; 0x432a <malloc>
    24f0:	7c 01       	movw	r14, r24
    24f2:	e5 e2       	ldi	r30, 0x25	; 37
    24f4:	f0 e0       	ldi	r31, 0x00	; 0
    24f6:	ec 0f       	add	r30, r28
    24f8:	fd 1f       	adc	r31, r29
    24fa:	e1 0f       	add	r30, r17
    24fc:	f1 1d       	adc	r31, r1
    24fe:	80 81       	ld	r24, Z
    2500:	40 e1       	ldi	r20, 0x10	; 16
    2502:	b7 01       	movw	r22, r14
    2504:	90 e0       	ldi	r25, 0x00	; 0
    2506:	0e 94 2c 23 	call	0x4658	; 0x4658 <__itoa_ncheck>
    250a:	c7 01       	movw	r24, r14
    250c:	0e 94 4c 1f 	call	0x3e98	; 0x3e98 <uart_puts>
    2510:	80 e2       	ldi	r24, 0x20	; 32
    2512:	0e 94 45 1f 	call	0x3e8a	; 0x3e8a <uart_putc>
    2516:	c7 01       	movw	r24, r14
    2518:	0e 94 2d 22 	call	0x445a	; 0x445a <free>
    251c:	1f 5f       	subi	r17, 0xFF	; 255
    251e:	14 30       	cpi	r17, 0x04	; 4
    2520:	18 f3       	brcs	.-58     	; 0x24e8 <lorawan_otaa_downlink+0x2c6>
    2522:	8a e1       	ldi	r24, 0x1A	; 26
    2524:	92 e0       	ldi	r25, 0x02	; 2
    2526:	0e 94 4c 1f 	call	0x3e98	; 0x3e98 <uart_puts>
    252a:	5f e7       	ldi	r21, 0x7F	; 127
    252c:	84 e8       	ldi	r24, 0x84	; 132
    252e:	9e e1       	ldi	r25, 0x1E	; 30
    2530:	51 50       	subi	r21, 0x01	; 1
    2532:	80 40       	sbci	r24, 0x00	; 0
    2534:	90 40       	sbci	r25, 0x00	; 0
    2536:	e1 f7       	brne	.-8      	; 0x2530 <lorawan_otaa_downlink+0x30e>
    2538:	00 c0       	rjmp	.+0      	; 0x253a <lorawan_otaa_downlink+0x318>
    253a:	00 00       	nop
    253c:	41 e0       	ldi	r20, 0x01	; 1
    253e:	69 e3       	ldi	r22, 0x39	; 57
    2540:	71 e0       	ldi	r23, 0x01	; 1
    2542:	80 91 2b 05 	lds	r24, 0x052B	; 0x80052b <app_number>
    2546:	0e 94 5b 02 	call	0x4b6	; 0x4b6 <eeprom_driver_write>
    254a:	42 e0       	ldi	r20, 0x02	; 2
    254c:	69 e2       	ldi	r22, 0x29	; 41
    254e:	71 e0       	ldi	r23, 0x01	; 1
    2550:	80 91 2b 05 	lds	r24, 0x052B	; 0x80052b <app_number>
    2554:	0e 94 5b 02 	call	0x4b6	; 0x4b6 <eeprom_driver_write>
    2558:	6b 85       	ldd	r22, Y+11	; 0x0b
    255a:	70 e0       	ldi	r23, 0x00	; 0
    255c:	46 e0       	ldi	r20, 0x06	; 6
    255e:	80 91 2b 05 	lds	r24, 0x052B	; 0x80052b <app_number>
    2562:	0e 94 5b 02 	call	0x4b6	; 0x4b6 <eeprom_driver_write>
    2566:	8b 85       	ldd	r24, Y+11	; 0x0b
    2568:	28 2f       	mov	r18, r24
    256a:	2f 70       	andi	r18, 0x0F	; 15
    256c:	9c e0       	ldi	r25, 0x0C	; 12
    256e:	92 1b       	sub	r25, r18
    2570:	90 93 5b 01 	sts	0x015B, r25	; 0x80015b <LORAWAN_RX2_SPREADING_FACTOR>
    2574:	80 77       	andi	r24, 0x70	; 112
    2576:	90 e0       	ldi	r25, 0x00	; 0
    2578:	95 95       	asr	r25
    257a:	87 95       	ror	r24
    257c:	95 95       	asr	r25
    257e:	87 95       	ror	r24
    2580:	95 95       	asr	r25
    2582:	87 95       	ror	r24
    2584:	95 95       	asr	r25
    2586:	87 95       	ror	r24
    2588:	90 91 5c 01 	lds	r25, 0x015C	; 0x80015c <LORAWAN_RX1_SPREADING_FACTOR>
    258c:	89 0f       	add	r24, r25
    258e:	80 93 5c 01 	sts	0x015C, r24	; 0x80015c <LORAWAN_RX1_SPREADING_FACTOR>
    2592:	6c 85       	ldd	r22, Y+12	; 0x0c
    2594:	70 e0       	ldi	r23, 0x00	; 0
    2596:	47 e0       	ldi	r20, 0x07	; 7
    2598:	80 91 2b 05 	lds	r24, 0x052B	; 0x80052b <app_number>
    259c:	0e 94 5b 02 	call	0x4b6	; 0x4b6 <eeprom_driver_write>
    25a0:	8c 85       	ldd	r24, Y+12	; 0x0c
    25a2:	80 93 5e 01 	sts	0x015E, r24	; 0x80015e <LORAWAN_RX1_DELAY_SECONDS>
    25a6:	80 91 25 05 	lds	r24, 0x0525	; 0x800525 <received_data_length>
    25aa:	81 32       	cpi	r24, 0x21	; 33
    25ac:	09 f5       	brne	.+66     	; 0x25f0 <lorawan_otaa_downlink+0x3ce>
    25ae:	14 c0       	rjmp	.+40     	; 0x25d8 <lorawan_otaa_downlink+0x3b6>
    25b0:	82 2f       	mov	r24, r18
    25b2:	90 e0       	ldi	r25, 0x00	; 0
    25b4:	fc 01       	movw	r30, r24
    25b6:	3c 96       	adiw	r30, 0x0c	; 12
    25b8:	a1 e0       	ldi	r26, 0x01	; 1
    25ba:	b0 e0       	ldi	r27, 0x00	; 0
    25bc:	ac 0f       	add	r26, r28
    25be:	bd 1f       	adc	r27, r29
    25c0:	ea 0f       	add	r30, r26
    25c2:	fb 1f       	adc	r31, r27
    25c4:	30 81       	ld	r19, Z
    25c6:	e5 e2       	ldi	r30, 0x25	; 37
    25c8:	f0 e0       	ldi	r31, 0x00	; 0
    25ca:	ec 0f       	add	r30, r28
    25cc:	fd 1f       	adc	r31, r29
    25ce:	e8 0f       	add	r30, r24
    25d0:	f9 1f       	adc	r31, r25
    25d2:	30 83       	st	Z, r19
    25d4:	2f 5f       	subi	r18, 0xFF	; 255
    25d6:	01 c0       	rjmp	.+2      	; 0x25da <lorawan_otaa_downlink+0x3b8>
    25d8:	20 e0       	ldi	r18, 0x00	; 0
    25da:	2f 30       	cpi	r18, 0x0F	; 15
    25dc:	48 f3       	brcs	.-46     	; 0x25b0 <lorawan_otaa_downlink+0x38e>
    25de:	4a e0       	ldi	r20, 0x0A	; 10
    25e0:	be 01       	movw	r22, r28
    25e2:	6b 5d       	subi	r22, 0xDB	; 219
    25e4:	7f 4f       	sbci	r23, 0xFF	; 255
    25e6:	80 91 2b 05 	lds	r24, 0x052B	; 0x80052b <app_number>
    25ea:	0e 94 5b 02 	call	0x4b6	; 0x4b6 <eeprom_driver_write>
    25ee:	1d c0       	rjmp	.+58     	; 0x262a <lorawan_otaa_downlink+0x408>
    25f0:	be 01       	movw	r22, r28
    25f2:	6b 5d       	subi	r22, 0xDB	; 219
    25f4:	7f 4f       	sbci	r23, 0xFF	; 255
    25f6:	8e e0       	ldi	r24, 0x0E	; 14
    25f8:	fb 01       	movw	r30, r22
    25fa:	11 92       	st	Z+, r1
    25fc:	8a 95       	dec	r24
    25fe:	e9 f7       	brne	.-6      	; 0x25fa <lorawan_otaa_downlink+0x3d8>
    2600:	88 e1       	ldi	r24, 0x18	; 24
    2602:	8d a3       	std	Y+37, r24	; 0x25
    2604:	8f e4       	ldi	r24, 0x4F	; 79
    2606:	8e a3       	std	Y+38, r24	; 0x26
    2608:	84 e8       	ldi	r24, 0x84	; 132
    260a:	8f a3       	std	Y+39, r24	; 0x27
    260c:	98 ee       	ldi	r25, 0xE8	; 232
    260e:	98 a7       	std	Y+40, r25	; 0x28
    2610:	96 e5       	ldi	r25, 0x56	; 86
    2612:	99 a7       	std	Y+41, r25	; 0x29
    2614:	8a a7       	std	Y+42, r24	; 0x2a
    2616:	98 eb       	ldi	r25, 0xB8	; 184
    2618:	9b a7       	std	Y+43, r25	; 0x2b
    261a:	9e e5       	ldi	r25, 0x5E	; 94
    261c:	9c a7       	std	Y+44, r25	; 0x2c
    261e:	8d a7       	std	Y+45, r24	; 0x2d
    2620:	4a e0       	ldi	r20, 0x0A	; 10
    2622:	80 91 2b 05 	lds	r24, 0x052B	; 0x80052b <app_number>
    2626:	0e 94 5b 02 	call	0x4b6	; 0x4b6 <eeprom_driver_write>
    262a:	e8 96       	adiw	r28, 0x38	; 56
    262c:	0f b6       	in	r0, 0x3f	; 63
    262e:	f8 94       	cli
    2630:	de bf       	out	0x3e, r29	; 62
    2632:	0f be       	out	0x3f, r0	; 63
    2634:	cd bf       	out	0x3d, r28	; 61
    2636:	df 91       	pop	r29
    2638:	cf 91       	pop	r28
    263a:	1f 91       	pop	r17
    263c:	0f 91       	pop	r16
    263e:	ff 90       	pop	r15
    2640:	ef 90       	pop	r14
    2642:	08 95       	ret

00002644 <join_sent>:
    2644:	10 92 28 05 	sts	0x0528, r1	; 0x800528 <antenna_state>
    2648:	2a e3       	ldi	r18, 0x3A	; 58
    264a:	33 e1       	ldi	r19, 0x13	; 19
    264c:	46 e0       	ldi	r20, 0x06	; 6
    264e:	69 e4       	ldi	r22, 0x49	; 73
    2650:	73 e1       	ldi	r23, 0x13	; 19
    2652:	85 e0       	ldi	r24, 0x05	; 5
    2654:	0c 94 a4 1e 	jmp	0x3d48	; 0x3d48 <timer_start>
    2658:	08 95       	ret

0000265a <packet_sent>:
    265a:	10 92 28 05 	sts	0x0528, r1	; 0x800528 <antenna_state>
    265e:	40 91 5d 01 	lds	r20, 0x015D	; 0x80015d <LORAWAN_RX2_DELAY_SECONDS>
    2662:	80 91 5e 01 	lds	r24, 0x015E	; 0x80015e <LORAWAN_RX1_DELAY_SECONDS>
    2666:	28 e5       	ldi	r18, 0x58	; 88
    2668:	33 e1       	ldi	r19, 0x13	; 19
    266a:	61 ea       	ldi	r22, 0xA1	; 161
    266c:	73 e1       	ldi	r23, 0x13	; 19
    266e:	0c 94 a4 1e 	jmp	0x3d48	; 0x3d48 <timer_start>
    2672:	08 95       	ret

00002674 <start_accept2>:
    2674:	82 e0       	ldi	r24, 0x02	; 2
    2676:	80 93 28 05 	sts	0x0528, r24	; 0x800528 <antenna_state>
    267a:	69 e9       	ldi	r22, 0x99	; 153
    267c:	7f e4       	ldi	r23, 0x4F	; 79
    267e:	8f e4       	ldi	r24, 0x4F	; 79
    2680:	9e e4       	ldi	r25, 0x4E	; 78
    2682:	03 d4       	rcall	.+2054   	; 0x2e8a <rfm95_set_frequency>
    2684:	80 91 5b 01 	lds	r24, 0x015B	; 0x80015b <LORAWAN_RX2_SPREADING_FACTOR>
    2688:	21 d4       	rcall	.+2114   	; 0x2ecc <rfm95_set_spreading_factor>
    268a:	81 e1       	ldi	r24, 0x11	; 17
    268c:	91 e1       	ldi	r25, 0x11	; 17
    268e:	50 c4       	rjmp	.+2208   	; 0x2f30 <rfm95_start_listening>
    2690:	08 95       	ret

00002692 <start_accept1>:
    2692:	82 e0       	ldi	r24, 0x02	; 2
    2694:	80 93 28 05 	sts	0x0528, r24	; 0x800528 <antenna_state>
    2698:	6e e9       	ldi	r22, 0x9E	; 158
    269a:	78 ef       	ldi	r23, 0xF8	; 248
    269c:	8e e4       	ldi	r24, 0x4E	; 78
    269e:	9e e4       	ldi	r25, 0x4E	; 78
    26a0:	f4 d3       	rcall	.+2024   	; 0x2e8a <rfm95_set_frequency>
    26a2:	80 91 5c 01 	lds	r24, 0x015C	; 0x80015c <LORAWAN_RX1_SPREADING_FACTOR>
    26a6:	12 d4       	rcall	.+2084   	; 0x2ecc <rfm95_set_spreading_factor>
    26a8:	81 e1       	ldi	r24, 0x11	; 17
    26aa:	91 e1       	ldi	r25, 0x11	; 17
    26ac:	41 c4       	rjmp	.+2178   	; 0x2f30 <rfm95_start_listening>
    26ae:	08 95       	ret

000026b0 <start_rx2>:
    26b0:	90 91 20 05 	lds	r25, 0x0520	; 0x800520 <LORAWAN_TIMEOUT_CONNECTION>
    26b4:	80 91 5a 01 	lds	r24, 0x015A	; 0x80015a <LORAWAN_TIMEOUT_CONNECTION_LIMIT>
    26b8:	98 17       	cp	r25, r24
    26ba:	c1 f0       	breq	.+48     	; 0x26ec <start_rx2+0x3c>
    26bc:	82 e0       	ldi	r24, 0x02	; 2
    26be:	80 93 28 05 	sts	0x0528, r24	; 0x800528 <antenna_state>
    26c2:	69 e9       	ldi	r22, 0x99	; 153
    26c4:	7f e4       	ldi	r23, 0x4F	; 79
    26c6:	8f e4       	ldi	r24, 0x4F	; 79
    26c8:	9e e4       	ldi	r25, 0x4E	; 78
    26ca:	df d3       	rcall	.+1982   	; 0x2e8a <rfm95_set_frequency>
    26cc:	69 e9       	ldi	r22, 0x99	; 153
    26ce:	7f e4       	ldi	r23, 0x4F	; 79
    26d0:	8f e4       	ldi	r24, 0x4F	; 79
    26d2:	9e e4       	ldi	r25, 0x4E	; 78
    26d4:	da d3       	rcall	.+1972   	; 0x2e8a <rfm95_set_frequency>
    26d6:	80 91 5b 01 	lds	r24, 0x015B	; 0x80015b <LORAWAN_RX2_SPREADING_FACTOR>
    26da:	f8 d3       	rcall	.+2032   	; 0x2ecc <rfm95_set_spreading_factor>
    26dc:	82 ef       	ldi	r24, 0xF2	; 242
    26de:	90 e1       	ldi	r25, 0x10	; 16
    26e0:	27 d4       	rcall	.+2126   	; 0x2f30 <rfm95_start_listening>
    26e2:	8d e1       	ldi	r24, 0x1D	; 29
    26e4:	93 e0       	ldi	r25, 0x03	; 3
    26e6:	0e 94 4c 1f 	call	0x3e98	; 0x3e98 <uart_puts>
    26ea:	0b c0       	rjmp	.+22     	; 0x2702 <start_rx2+0x52>
    26ec:	60 91 5a 01 	lds	r22, 0x015A	; 0x80015a <LORAWAN_TIMEOUT_CONNECTION_LIMIT>
    26f0:	70 e0       	ldi	r23, 0x00	; 0
    26f2:	48 e0       	ldi	r20, 0x08	; 8
    26f4:	80 91 2b 05 	lds	r24, 0x052B	; 0x80052b <app_number>
    26f8:	0e 94 5b 02 	call	0x4b6	; 0x4b6 <eeprom_driver_write>
    26fc:	88 e0       	ldi	r24, 0x08	; 8
    26fe:	80 93 60 00 	sts	0x0060, r24	; 0x800060 <__TEXT_REGION_LENGTH__+0x7e0060>
    2702:	80 91 20 05 	lds	r24, 0x0520	; 0x800520 <LORAWAN_TIMEOUT_CONNECTION>
    2706:	8f 5f       	subi	r24, 0xFF	; 255
    2708:	80 93 20 05 	sts	0x0520, r24	; 0x800520 <LORAWAN_TIMEOUT_CONNECTION>
    270c:	90 91 5a 01 	lds	r25, 0x015A	; 0x80015a <LORAWAN_TIMEOUT_CONNECTION_LIMIT>
    2710:	80 91 20 05 	lds	r24, 0x0520	; 0x800520 <LORAWAN_TIMEOUT_CONNECTION>
    2714:	1f 92       	push	r1
    2716:	9f 93       	push	r25
    2718:	1f 92       	push	r1
    271a:	8f 93       	push	r24
    271c:	8c e2       	ldi	r24, 0x2C	; 44
    271e:	93 e0       	ldi	r25, 0x03	; 3
    2720:	9f 93       	push	r25
    2722:	8f 93       	push	r24
    2724:	84 e3       	ldi	r24, 0x34	; 52
    2726:	93 e0       	ldi	r25, 0x03	; 3
    2728:	9f 93       	push	r25
    272a:	8f 93       	push	r24
    272c:	0e 94 74 1f 	call	0x3ee8	; 0x3ee8 <uart_put>
    2730:	8d b7       	in	r24, 0x3d	; 61
    2732:	9e b7       	in	r25, 0x3e	; 62
    2734:	08 96       	adiw	r24, 0x08	; 8
    2736:	0f b6       	in	r0, 0x3f	; 63
    2738:	f8 94       	cli
    273a:	9e bf       	out	0x3e, r25	; 62
    273c:	0f be       	out	0x3f, r0	; 63
    273e:	8d bf       	out	0x3d, r24	; 61
    2740:	08 95       	ret

00002742 <start_rx1>:
    2742:	90 91 20 05 	lds	r25, 0x0520	; 0x800520 <LORAWAN_TIMEOUT_CONNECTION>
    2746:	80 91 5a 01 	lds	r24, 0x015A	; 0x80015a <LORAWAN_TIMEOUT_CONNECTION_LIMIT>
    274a:	98 17       	cp	r25, r24
    274c:	b9 f0       	breq	.+46     	; 0x277c <start_rx1+0x3a>
    274e:	82 e0       	ldi	r24, 0x02	; 2
    2750:	80 93 28 05 	sts	0x0528, r24	; 0x800528 <antenna_state>
    2754:	60 91 21 05 	lds	r22, 0x0521	; 0x800521 <LORAWAN_FREQUENCY>
    2758:	70 91 22 05 	lds	r23, 0x0522	; 0x800522 <LORAWAN_FREQUENCY+0x1>
    275c:	80 91 23 05 	lds	r24, 0x0523	; 0x800523 <LORAWAN_FREQUENCY+0x2>
    2760:	90 91 24 05 	lds	r25, 0x0524	; 0x800524 <LORAWAN_FREQUENCY+0x3>
    2764:	92 d3       	rcall	.+1828   	; 0x2e8a <rfm95_set_frequency>
    2766:	80 91 5c 01 	lds	r24, 0x015C	; 0x80015c <LORAWAN_RX1_SPREADING_FACTOR>
    276a:	b0 d3       	rcall	.+1888   	; 0x2ecc <rfm95_set_spreading_factor>
    276c:	82 ef       	ldi	r24, 0xF2	; 242
    276e:	90 e1       	ldi	r25, 0x10	; 16
    2770:	df d3       	rcall	.+1982   	; 0x2f30 <rfm95_start_listening>
    2772:	8e e3       	ldi	r24, 0x3E	; 62
    2774:	93 e0       	ldi	r25, 0x03	; 3
    2776:	0c 94 4c 1f 	jmp	0x3e98	; 0x3e98 <uart_puts>
    277a:	08 95       	ret
    277c:	60 91 5a 01 	lds	r22, 0x015A	; 0x80015a <LORAWAN_TIMEOUT_CONNECTION_LIMIT>
    2780:	70 e0       	ldi	r23, 0x00	; 0
    2782:	48 e0       	ldi	r20, 0x08	; 8
    2784:	80 91 2b 05 	lds	r24, 0x052B	; 0x80052b <app_number>
    2788:	0e 94 5b 02 	call	0x4b6	; 0x4b6 <eeprom_driver_write>
    278c:	88 e0       	ldi	r24, 0x08	; 8
    278e:	80 93 60 00 	sts	0x0060, r24	; 0x800060 <__TEXT_REGION_LENGTH__+0x7e0060>
    2792:	08 95       	ret

00002794 <lorawan_data_received>:
    2794:	90 91 25 05 	lds	r25, 0x0525	; 0x800525 <received_data_length>
    2798:	81 e0       	ldi	r24, 0x01	; 1
    279a:	91 11       	cpse	r25, r1
    279c:	01 c0       	rjmp	.+2      	; 0x27a0 <lorawan_data_received+0xc>
    279e:	80 e0       	ldi	r24, 0x00	; 0
    27a0:	08 95       	ret

000027a2 <lorawan_read_received_data>:
    27a2:	cf 92       	push	r12
    27a4:	df 92       	push	r13
    27a6:	ef 92       	push	r14
    27a8:	ff 92       	push	r15
    27aa:	0f 93       	push	r16
    27ac:	1f 93       	push	r17
    27ae:	cf 93       	push	r28
    27b0:	8c 01       	movw	r16, r24
    27b2:	7b 01       	movw	r14, r22
    27b4:	ef df       	rcall	.-34     	; 0x2794 <lorawan_data_received>
    27b6:	88 23       	and	r24, r24
    27b8:	91 f1       	breq	.+100    	; 0x281e <lorawan_read_received_data+0x7c>
    27ba:	40 91 25 05 	lds	r20, 0x0525	; 0x800525 <received_data_length>
    27be:	60 91 26 05 	lds	r22, 0x0526	; 0x800526 <received_data>
    27c2:	70 91 27 05 	lds	r23, 0x0527	; 0x800527 <received_data+0x1>
    27c6:	c8 01       	movw	r24, r16
    27c8:	c4 db       	rcall	.-2168   	; 0x1f52 <lorawan_packets_read_packet>
    27ca:	8c 01       	movw	r16, r24
    27cc:	80 91 26 05 	lds	r24, 0x0526	; 0x800526 <received_data>
    27d0:	90 91 27 05 	lds	r25, 0x0527	; 0x800527 <received_data+0x1>
    27d4:	0e 94 2d 22 	call	0x445a	; 0x445a <free>
    27d8:	10 92 27 05 	sts	0x0527, r1	; 0x800527 <received_data+0x1>
    27dc:	10 92 26 05 	sts	0x0526, r1	; 0x800526 <received_data>
    27e0:	10 92 25 05 	sts	0x0525, r1	; 0x800525 <received_data_length>
    27e4:	01 15       	cp	r16, r1
    27e6:	11 05       	cpc	r17, r1
    27e8:	e1 f0       	breq	.+56     	; 0x2822 <lorawan_read_received_data+0x80>
    27ea:	f8 01       	movw	r30, r16
    27ec:	c3 85       	ldd	r28, Z+11	; 0x0b
    27ee:	cc 2e       	mov	r12, r28
    27f0:	d1 2c       	mov	r13, r1
    27f2:	c6 01       	movw	r24, r12
    27f4:	0e 94 95 21 	call	0x432a	; 0x432a <malloc>
    27f8:	f7 01       	movw	r30, r14
    27fa:	91 83       	std	Z+1, r25	; 0x01
    27fc:	80 83       	st	Z, r24
    27fe:	00 97       	sbiw	r24, 0x00	; 0
    2800:	21 f4       	brne	.+8      	; 0x280a <lorawan_read_received_data+0x68>
    2802:	c8 01       	movw	r24, r16
    2804:	a3 d9       	rcall	.-3258   	; 0x1b4c <lorawan_packets_delete_packet>
    2806:	80 e0       	ldi	r24, 0x00	; 0
    2808:	0d c0       	rjmp	.+26     	; 0x2824 <lorawan_read_received_data+0x82>
    280a:	f8 01       	movw	r30, r16
    280c:	61 85       	ldd	r22, Z+9	; 0x09
    280e:	72 85       	ldd	r23, Z+10	; 0x0a
    2810:	a6 01       	movw	r20, r12
    2812:	0e 94 1c 23 	call	0x4638	; 0x4638 <memcpy>
    2816:	c8 01       	movw	r24, r16
    2818:	99 d9       	rcall	.-3278   	; 0x1b4c <lorawan_packets_delete_packet>
    281a:	8c 2f       	mov	r24, r28
    281c:	03 c0       	rjmp	.+6      	; 0x2824 <lorawan_read_received_data+0x82>
    281e:	80 e0       	ldi	r24, 0x00	; 0
    2820:	01 c0       	rjmp	.+2      	; 0x2824 <lorawan_read_received_data+0x82>
    2822:	80 e0       	ldi	r24, 0x00	; 0
    2824:	cf 91       	pop	r28
    2826:	1f 91       	pop	r17
    2828:	0f 91       	pop	r16
    282a:	ff 90       	pop	r15
    282c:	ef 90       	pop	r14
    282e:	df 90       	pop	r13
    2830:	cf 90       	pop	r12
    2832:	08 95       	ret

00002834 <lorawan_read_otaa_information>:

#if OTAA_ABP
uint8_t lorawan_read_otaa_information(uint8_t address){

	return eeprom_read_byte((const uint8_t*) address);
    2834:	90 e0       	ldi	r25, 0x00	; 0
    2836:	0c 94 44 26 	jmp	0x4c88	; 0x4c88 <eeprom_read_byte>
}
    283a:	08 95       	ret

0000283c <lorawan_send_data>:

	return true;
}
#endif

bool lorawan_send_data(lorawan_state *state, const uint8_t *payload, const uint8_t length, downlink_callback downlink_received) {
    283c:	8f 92       	push	r8
    283e:	9f 92       	push	r9
    2840:	af 92       	push	r10
    2842:	bf 92       	push	r11
    2844:	cf 92       	push	r12
    2846:	df 92       	push	r13
    2848:	ef 92       	push	r14
    284a:	ff 92       	push	r15
    284c:	1f 93       	push	r17
    284e:	cf 93       	push	r28
    2850:	df 93       	push	r29
    2852:	6c 01       	movw	r12, r24
    2854:	4b 01       	movw	r8, r22
    2856:	f4 2e       	mov	r15, r20
    2858:	59 01       	movw	r10, r18
	uint8_t buffer_length = lorawan_packets_calculate_needed_buffer_length(length);
    285a:	84 2f       	mov	r24, r20
    285c:	75 d9       	rcall	.-3350   	; 0x1b48 <lorawan_packets_calculate_needed_buffer_length>
    285e:	18 2f       	mov	r17, r24
	uint8_t *buffer = malloc(sizeof(uint8_t) * buffer_length);
    2860:	90 e0       	ldi	r25, 0x00	; 0
    2862:	0e 94 95 21 	call	0x432a	; 0x432a <malloc>
    2866:	ec 01       	movw	r28, r24
	if (buffer == NULL) return false;
    2868:	89 2b       	or	r24, r25
    286a:	09 f4       	brne	.+2      	; 0x286e <lorawan_send_data+0x32>
    286c:	84 c0       	rjmp	.+264    	; 0x2976 <lorawan_send_data+0x13a>
	
	lorawan_packet *packet = lorawan_packets_new_packet(state, payload, length);
    286e:	4f 2d       	mov	r20, r15
    2870:	b4 01       	movw	r22, r8
    2872:	c6 01       	movw	r24, r12
    2874:	12 da       	rcall	.-3036   	; 0x1c9a <lorawan_packets_new_packet>
    2876:	7c 01       	movw	r14, r24
	if (packet == NULL) {
    2878:	00 97       	sbiw	r24, 0x00	; 0
    287a:	29 f4       	brne	.+10     	; 0x2886 <lorawan_send_data+0x4a>
		free(buffer);
    287c:	ce 01       	movw	r24, r28
    287e:	0e 94 2d 22 	call	0x445a	; 0x445a <free>
		return false;
    2882:	80 e0       	ldi	r24, 0x00	; 0
    2884:	79 c0       	rjmp	.+242    	; 0x2978 <lorawan_send_data+0x13c>
	}

	uint8_t packet_write_successful = lorawan_packets_write_packet(state, packet, buffer, buffer_length);
    2886:	21 2f       	mov	r18, r17
    2888:	ae 01       	movw	r20, r28
    288a:	bc 01       	movw	r22, r24
    288c:	c6 01       	movw	r24, r12
    288e:	82 da       	rcall	.-2812   	; 0x1d94 <lorawan_packets_write_packet>
	if (!packet_write_successful) {
    2890:	81 11       	cpse	r24, r1
		lorawan_packets_delete_packet(packet);
    2892:	07 c0       	rjmp	.+14     	; 0x28a2 <lorawan_send_data+0x66>
    2894:	c7 01       	movw	r24, r14
    2896:	5a d9       	rcall	.-3404   	; 0x1b4c <lorawan_packets_delete_packet>
		free(buffer);
    2898:	ce 01       	movw	r24, r28
    289a:	0e 94 2d 22 	call	0x445a	; 0x445a <free>
		return false;
    289e:	80 e0       	ldi	r24, 0x00	; 0
    28a0:	6b c0       	rjmp	.+214    	; 0x2978 <lorawan_send_data+0x13c>
	}

	antenna_state = LORAWAN_ANTENNA_SENDING;
    28a2:	81 e0       	ldi	r24, 0x01	; 1
    28a4:	80 93 28 05 	sts	0x0528, r24	; 0x800528 <antenna_state>
	callback = downlink_received;
    28a8:	b0 92 2a 05 	sts	0x052A, r11	; 0x80052a <callback+0x1>
    28ac:	a0 92 29 05 	sts	0x0529, r10	; 0x800529 <callback>

#if OTAA_ABP
	//uint8_t ran = (rand() % 3); //3 because of the used TheThingsIndoorGateway witch only uses channel 1 to 3

	lorawan_channel = (62 + (3 * (rand() % 3)));		//calculate the right address in eeprom
    28b0:	0e 94 fd 22 	call	0x45fa	; 0x45fa <rand>
    28b4:	63 e0       	ldi	r22, 0x03	; 3
    28b6:	70 e0       	ldi	r23, 0x00	; 0
    28b8:	0e 94 3e 21 	call	0x427c	; 0x427c <__divmodhi4>
    28bc:	98 2f       	mov	r25, r24
    28be:	99 0f       	add	r25, r25
    28c0:	89 0f       	add	r24, r25
    28c2:	82 5c       	subi	r24, 0xC2	; 194
    28c4:	80 93 1e 05 	sts	0x051E, r24	; 0x80051e <lorawan_channel>

	freq.bytes[0] = lorawan_read_otaa_information(lorawan_channel);		//build a uint32_t with the help of a union
    28c8:	80 91 1e 05 	lds	r24, 0x051E	; 0x80051e <lorawan_channel>
    28cc:	b3 df       	rcall	.-154    	; 0x2834 <lorawan_read_otaa_information>
    28ce:	0f 2e       	mov	r0, r31
    28d0:	fd e8       	ldi	r31, 0x8D	; 141
    28d2:	cf 2e       	mov	r12, r31
    28d4:	f9 e0       	ldi	r31, 0x09	; 9
    28d6:	df 2e       	mov	r13, r31
    28d8:	f0 2d       	mov	r31, r0
    28da:	f6 01       	movw	r30, r12
	freq.bytes[1] = lorawan_read_otaa_information(lorawan_channel+1);
    28dc:	80 83       	st	Z, r24
    28de:	80 91 1e 05 	lds	r24, 0x051E	; 0x80051e <lorawan_channel>
    28e2:	8f 5f       	subi	r24, 0xFF	; 255
    28e4:	a7 df       	rcall	.-178    	; 0x2834 <lorawan_read_otaa_information>
    28e6:	f6 01       	movw	r30, r12
	freq.bytes[2] = lorawan_read_otaa_information(lorawan_channel+2);
    28e8:	81 83       	std	Z+1, r24	; 0x01
    28ea:	80 91 1e 05 	lds	r24, 0x051E	; 0x80051e <lorawan_channel>
    28ee:	8e 5f       	subi	r24, 0xFE	; 254
    28f0:	a1 df       	rcall	.-190    	; 0x2834 <lorawan_read_otaa_information>
    28f2:	f6 01       	movw	r30, r12
    28f4:	82 83       	std	Z+2, r24	; 0x02
	freq.bytes[3] = 0x00;
    28f6:	13 82       	std	Z+3, r1	; 0x03
		
	LORAWAN_FREQUENCY = 100.0f;					//prepare the float
    28f8:	80 e0       	ldi	r24, 0x00	; 0
    28fa:	90 e0       	ldi	r25, 0x00	; 0
    28fc:	a8 ec       	ldi	r26, 0xC8	; 200
    28fe:	b2 e4       	ldi	r27, 0x42	; 66
    2900:	80 93 21 05 	sts	0x0521, r24	; 0x800521 <LORAWAN_FREQUENCY>
    2904:	90 93 22 05 	sts	0x0522, r25	; 0x800522 <LORAWAN_FREQUENCY+0x1>
    2908:	a0 93 23 05 	sts	0x0523, r26	; 0x800523 <LORAWAN_FREQUENCY+0x2>
    290c:	b0 93 24 05 	sts	0x0524, r27	; 0x800524 <LORAWAN_FREQUENCY+0x3>
	LORAWAN_FREQUENCY = LORAWAN_FREQUENCY * (float)freq.out;		//do the calculation of the frequency. The cast from uint32_t to float is the most important thing at this point.
    2910:	60 91 8d 09 	lds	r22, 0x098D	; 0x80098d <freq>
    2914:	70 91 8e 09 	lds	r23, 0x098E	; 0x80098e <freq+0x1>
    2918:	80 91 8f 09 	lds	r24, 0x098F	; 0x80098f <freq+0x2>
    291c:	90 91 90 09 	lds	r25, 0x0990	; 0x800990 <freq+0x3>
    2920:	0e 94 2d 20 	call	0x405a	; 0x405a <__floatunsisf>
    2924:	20 91 21 05 	lds	r18, 0x0521	; 0x800521 <LORAWAN_FREQUENCY>
    2928:	30 91 22 05 	lds	r19, 0x0522	; 0x800522 <LORAWAN_FREQUENCY+0x1>
    292c:	40 91 23 05 	lds	r20, 0x0523	; 0x800523 <LORAWAN_FREQUENCY+0x2>
    2930:	50 91 24 05 	lds	r21, 0x0524	; 0x800524 <LORAWAN_FREQUENCY+0x3>
    2934:	0e 94 bb 20 	call	0x4176	; 0x4176 <__mulsf3>
    2938:	60 93 21 05 	sts	0x0521, r22	; 0x800521 <LORAWAN_FREQUENCY>
    293c:	70 93 22 05 	sts	0x0522, r23	; 0x800522 <LORAWAN_FREQUENCY+0x1>
    2940:	80 93 23 05 	sts	0x0523, r24	; 0x800523 <LORAWAN_FREQUENCY+0x2>
    2944:	90 93 24 05 	sts	0x0524, r25	; 0x800524 <LORAWAN_FREQUENCY+0x3>

	rfm95_set_frequency(LORAWAN_FREQUENCY);	//selecting random channel from Join Accept Message
    2948:	60 91 21 05 	lds	r22, 0x0521	; 0x800521 <LORAWAN_FREQUENCY>
    294c:	70 91 22 05 	lds	r23, 0x0522	; 0x800522 <LORAWAN_FREQUENCY+0x1>
    2950:	80 91 23 05 	lds	r24, 0x0523	; 0x800523 <LORAWAN_FREQUENCY+0x2>
    2954:	90 91 24 05 	lds	r25, 0x0524	; 0x800524 <LORAWAN_FREQUENCY+0x3>
#else
	rfm95_set_frequency(LORAWAN_TX_FREQUENCY);
#endif
	rfm95_set_spreading_factor(LORAWAN_TX_SPREADING_FACTOR);
    2958:	98 d2       	rcall	.+1328   	; 0x2e8a <rfm95_set_frequency>
    295a:	87 e0       	ldi	r24, 0x07	; 7
	rfm95_send_packet(buffer, buffer_length, &packet_sent);
    295c:	b7 d2       	rcall	.+1390   	; 0x2ecc <rfm95_set_spreading_factor>
    295e:	4d e2       	ldi	r20, 0x2D	; 45
    2960:	53 e1       	ldi	r21, 0x13	; 19
    2962:	61 2f       	mov	r22, r17
    2964:	ce 01       	movw	r24, r28
    2966:	bb d2       	rcall	.+1398   	; 0x2ede <rfm95_send_packet>

	lorawan_packets_delete_packet(packet);
    2968:	c7 01       	movw	r24, r14
    296a:	f0 d8       	rcall	.-3616   	; 0x1b4c <lorawan_packets_delete_packet>
    296c:	ce 01       	movw	r24, r28
	free(buffer);
    296e:	0e 94 2d 22 	call	0x445a	; 0x445a <free>
    2972:	81 e0       	ldi	r24, 0x01	; 1

	return true;
    2974:	01 c0       	rjmp	.+2      	; 0x2978 <lorawan_send_data+0x13c>
    2976:	80 e0       	ldi	r24, 0x00	; 0
#endif

bool lorawan_send_data(lorawan_state *state, const uint8_t *payload, const uint8_t length, downlink_callback downlink_received) {
	uint8_t buffer_length = lorawan_packets_calculate_needed_buffer_length(length);
	uint8_t *buffer = malloc(sizeof(uint8_t) * buffer_length);
	if (buffer == NULL) return false;
    2978:	df 91       	pop	r29

	lorawan_packets_delete_packet(packet);
	free(buffer);

	return true;
}
    297a:	cf 91       	pop	r28
    297c:	1f 91       	pop	r17
    297e:	ff 90       	pop	r15
    2980:	ef 90       	pop	r14
    2982:	df 90       	pop	r13
    2984:	cf 90       	pop	r12
    2986:	bf 90       	pop	r11
    2988:	af 90       	pop	r10
    298a:	9f 90       	pop	r9
    298c:	8f 90       	pop	r8
    298e:	08 95       	ret

00002990 <lorawan_write_otaa_information>:
    2990:	90 e0       	ldi	r25, 0x00	; 0
	return eeprom_read_byte((const uint8_t*) address);
}

void lorawan_write_otaa_information(uint8_t address, uint8_t *value){
	//uart_put("%d",value);
	eeprom_update_byte((uint8_t*) address, value);
    2992:	0c 94 4c 26 	jmp	0x4c98	; 0x4c98 <eeprom_update_byte>
    2996:	08 95       	ret

00002998 <lorawan_do_otaa>:
			**/
		}
	}
};

bool lorawan_do_otaa(lorawan_state *state) {
    2998:	ef 92       	push	r14
    299a:	ff 92       	push	r15
    299c:	0f 93       	push	r16
    299e:	1f 93       	push	r17
    29a0:	cf 93       	push	r28
    29a2:	df 93       	push	r29
    29a4:	8c 01       	movw	r16, r24
	uint8_t buffer_length = 23;	//join-request length is fixed
	uint8_t *buffer = malloc(sizeof(uint8_t) * buffer_length);
    29a6:	87 e1       	ldi	r24, 0x17	; 23
    29a8:	90 e0       	ldi	r25, 0x00	; 0
    29aa:	0e 94 95 21 	call	0x432a	; 0x432a <malloc>
    29ae:	ec 01       	movw	r28, r24
	if (buffer == NULL)
    29b0:	89 2b       	or	r24, r25
    29b2:	09 f4       	brne	.+2      	; 0x29b6 <lorawan_do_otaa+0x1e>
    29b4:	40 c0       	rjmp	.+128    	; 0x2a36 <lorawan_do_otaa+0x9e>
		return false;
		
	state->device_config = device_config;	
    29b6:	8d e4       	ldi	r24, 0x4D	; 77
    29b8:	ed e0       	ldi	r30, 0x0D	; 13
    29ba:	f1 e0       	ldi	r31, 0x01	; 1
    29bc:	d8 01       	movw	r26, r16
    29be:	18 96       	adiw	r26, 0x08	; 8
    29c0:	01 90       	ld	r0, Z+
    29c2:	0d 92       	st	X+, r0
    29c4:	8a 95       	dec	r24
    29c6:	e1 f7       	brne	.-8      	; 0x29c0 <lorawan_do_otaa+0x28>

	lorawan_packet *packet = lorawan_otaa_packet(state);	//make the join-request package
    29c8:	c8 01       	movw	r24, r16
    29ca:	0b d9       	rcall	.-3562   	; 0x1be2 <lorawan_otaa_packet>
    29cc:	7c 01       	movw	r14, r24
	if (packet == NULL){
    29ce:	00 97       	sbiw	r24, 0x00	; 0
    29d0:	29 f4       	brne	.+10     	; 0x29dc <lorawan_do_otaa+0x44>
		free(buffer);
    29d2:	ce 01       	movw	r24, r28
    29d4:	0e 94 2d 22 	call	0x445a	; 0x445a <free>
		return false;
    29d8:	80 e0       	ldi	r24, 0x00	; 0
    29da:	2e c0       	rjmp	.+92     	; 0x2a38 <lorawan_do_otaa+0xa0>
	}

	uint8_t packet_write_successful = lorawan_packets_write_otaa(state, packet, buffer);	//fill the buffer with the package
    29dc:	ae 01       	movw	r20, r28
    29de:	bc 01       	movw	r22, r24
    29e0:	c8 01       	movw	r24, r16
    29e2:	6b da       	rcall	.-2858   	; 0x1eba <lorawan_packets_write_otaa>
	if (!packet_write_successful) {
    29e4:	81 11       	cpse	r24, r1
		lorawan_packets_delete_packet(packet);
    29e6:	07 c0       	rjmp	.+14     	; 0x29f6 <lorawan_do_otaa+0x5e>
    29e8:	c7 01       	movw	r24, r14
    29ea:	b0 d8       	rcall	.-3744   	; 0x1b4c <lorawan_packets_delete_packet>
		free(buffer);
    29ec:	ce 01       	movw	r24, r28
    29ee:	0e 94 2d 22 	call	0x445a	; 0x445a <free>
		return false;
    29f2:	80 e0       	ldi	r24, 0x00	; 0
    29f4:	21 c0       	rjmp	.+66     	; 0x2a38 <lorawan_do_otaa+0xa0>
	}

	antenna_state = LORAWAN_ANTENNA_SENDING;
    29f6:	81 e0       	ldi	r24, 0x01	; 1
    29f8:	80 93 28 05 	sts	0x0528, r24	; 0x800528 <antenna_state>
	callback = NULL;
    29fc:	10 92 2a 05 	sts	0x052A, r1	; 0x80052a <callback+0x1>
    2a00:	10 92 29 05 	sts	0x0529, r1	; 0x800529 <callback>

	rfm95_set_frequency(LORAWAN_TX_FREQUENCY);
    2a04:	6e e9       	ldi	r22, 0x9E	; 158
    2a06:	78 ef       	ldi	r23, 0xF8	; 248
    2a08:	8e e4       	ldi	r24, 0x4E	; 78
    2a0a:	9e e4       	ldi	r25, 0x4E	; 78
	rfm95_set_spreading_factor(LORAWAN_TX_SPREADING_FACTOR);
    2a0c:	3e d2       	rcall	.+1148   	; 0x2e8a <rfm95_set_frequency>
    2a0e:	87 e0       	ldi	r24, 0x07	; 7
    2a10:	5d d2       	rcall	.+1210   	; 0x2ecc <rfm95_set_spreading_factor>
	rfm95_send_packet(buffer, buffer_length, &join_sent);
    2a12:	42 e2       	ldi	r20, 0x22	; 34
    2a14:	53 e1       	ldi	r21, 0x13	; 19
    2a16:	67 e1       	ldi	r22, 0x17	; 23
    2a18:	ce 01       	movw	r24, r28

	lorawan_packets_delete_packet(packet);
    2a1a:	61 d2       	rcall	.+1218   	; 0x2ede <rfm95_send_packet>
    2a1c:	c7 01       	movw	r24, r14
	free(buffer);
    2a1e:	96 d8       	rcall	.-3796   	; 0x1b4c <lorawan_packets_delete_packet>
    2a20:	ce 01       	movw	r24, r28
    2a22:	0e 94 2d 22 	call	0x445a	; 0x445a <free>
	
	lorawan_packets_reset_counter(state);
    2a26:	c8 01       	movw	r24, r16
	lorawan_write_otaa_information(62, 0);
    2a28:	60 d8       	rcall	.-3904   	; 0x1aea <lorawan_packets_reset_counter>
    2a2a:	60 e0       	ldi	r22, 0x00	; 0
    2a2c:	70 e0       	ldi	r23, 0x00	; 0
    2a2e:	8e e3       	ldi	r24, 0x3E	; 62
    2a30:	af df       	rcall	.-162    	; 0x2990 <lorawan_write_otaa_information>

	return true;
    2a32:	81 e0       	ldi	r24, 0x01	; 1
    2a34:	01 c0       	rjmp	.+2      	; 0x2a38 <lorawan_do_otaa+0xa0>

bool lorawan_do_otaa(lorawan_state *state) {
	uint8_t buffer_length = 23;	//join-request length is fixed
	uint8_t *buffer = malloc(sizeof(uint8_t) * buffer_length);
	if (buffer == NULL)
		return false;
    2a36:	80 e0       	ldi	r24, 0x00	; 0
	
	lorawan_packets_reset_counter(state);
	lorawan_write_otaa_information(62, 0);

	return true;
}
    2a38:	df 91       	pop	r29
    2a3a:	cf 91       	pop	r28
    2a3c:	1f 91       	pop	r17
    2a3e:	0f 91       	pop	r16
    2a40:	ff 90       	pop	r15
    2a42:	ef 90       	pop	r14
    2a44:	08 95       	ret

00002a46 <lorawan_restore_session>:
	eeprom_update_byte((uint8_t*) address, value);
}

void lorawan_restore_session(){
	//device_config.app_nonce lesen
	eeprom_driver_read(device_config.app_nonce, app_number, 5);
    2a46:	45 e0       	ldi	r20, 0x05	; 5
    2a48:	60 91 2b 05 	lds	r22, 0x052B	; 0x80052b <app_number>
    2a4c:	83 e5       	ldi	r24, 0x53	; 83
    2a4e:	91 e0       	ldi	r25, 0x01	; 1
    2a50:	0e 94 e3 02 	call	0x5c6	; 0x5c6 <eeprom_driver_read>
	//device_config.network_id lesen
	eeprom_driver_read(device_config.network_id, app_number, 4);
    2a54:	44 e0       	ldi	r20, 0x04	; 4
    2a56:	60 91 2b 05 	lds	r22, 0x052B	; 0x80052b <app_number>
    2a5a:	86 e5       	ldi	r24, 0x56	; 86
    2a5c:	91 e0       	ldi	r25, 0x01	; 1
    2a5e:	0e 94 e3 02 	call	0x5c6	; 0x5c6 <eeprom_driver_read>
	//device_config.network_session_key lesen
	eeprom_driver_read(device_config.network_session_key, app_number, 1);
    2a62:	41 e0       	ldi	r20, 0x01	; 1
    2a64:	60 91 2b 05 	lds	r22, 0x052B	; 0x80052b <app_number>
    2a68:	89 e3       	ldi	r24, 0x39	; 57
    2a6a:	91 e0       	ldi	r25, 0x01	; 1
    2a6c:	0e 94 e3 02 	call	0x5c6	; 0x5c6 <eeprom_driver_read>
	//device_config.app_session_key lesen
	eeprom_driver_read(device_config.app_session_key, app_number, 2);
    2a70:	42 e0       	ldi	r20, 0x02	; 2
    2a72:	60 91 2b 05 	lds	r22, 0x052B	; 0x80052b <app_number>
    2a76:	89 e2       	ldi	r24, 0x29	; 41
    2a78:	91 e0       	ldi	r25, 0x01	; 1
    2a7a:	0e 94 e3 02 	call	0x5c6	; 0x5c6 <eeprom_driver_read>
	//device_address lesen ACHTUNG wird im Orginal Code von hinten nach vorne gelesen
	eeprom_driver_read(device_config.device_address, app_number, 3);
    2a7e:	43 e0       	ldi	r20, 0x03	; 3
    2a80:	60 91 2b 05 	lds	r22, 0x052B	; 0x80052b <app_number>
    2a84:	8d e0       	ldi	r24, 0x0D	; 13
    2a86:	91 e0       	ldi	r25, 0x01	; 1
    2a88:	0e 94 e3 02 	call	0x5c6	; 0x5c6 <eeprom_driver_read>
	//dev_nonce lesen
	eeprom_driver_read(device_config.dev_nonce, app_number, 9);
    2a8c:	49 e0       	ldi	r20, 0x09	; 9
    2a8e:	60 91 2b 05 	lds	r22, 0x052B	; 0x80052b <app_number>
    2a92:	81 e5       	ldi	r24, 0x51	; 81
    2a94:	91 e0       	ldi	r25, 0x01	; 1
    2a96:	0e 94 e3 02 	call	0x5c6	; 0x5c6 <eeprom_driver_read>
	//device_config.download_settings lesen
	device_config.download_settings = eeprom_driver_read_uint8_t(app_number, 6);
    2a9a:	66 e0       	ldi	r22, 0x06	; 6
    2a9c:	80 91 2b 05 	lds	r24, 0x052B	; 0x80052b <app_number>
    2aa0:	0e 94 d4 02 	call	0x5a8	; 0x5a8 <eeprom_driver_read_uint8_t>
    2aa4:	80 93 59 01 	sts	0x0159, r24	; 0x800159 <device_config+0x4c>
	LORAWAN_RX2_SPREADING_FACTOR = (12 - (device_config.download_settings & 0b00001111));
    2aa8:	28 2f       	mov	r18, r24
    2aaa:	2f 70       	andi	r18, 0x0F	; 15
    2aac:	9c e0       	ldi	r25, 0x0C	; 12
    2aae:	92 1b       	sub	r25, r18
    2ab0:	90 93 5b 01 	sts	0x015B, r25	; 0x80015b <LORAWAN_RX2_SPREADING_FACTOR>
	LORAWAN_RX1_SPREADING_FACTOR = LORAWAN_RX1_SPREADING_FACTOR + ((device_config.download_settings &  0b01110000) >> 4);
    2ab4:	80 77       	andi	r24, 0x70	; 112
    2ab6:	90 e0       	ldi	r25, 0x00	; 0
    2ab8:	95 95       	asr	r25
    2aba:	87 95       	ror	r24
    2abc:	95 95       	asr	r25
    2abe:	87 95       	ror	r24
    2ac0:	95 95       	asr	r25
    2ac2:	87 95       	ror	r24
    2ac4:	95 95       	asr	r25
    2ac6:	87 95       	ror	r24
    2ac8:	90 91 5c 01 	lds	r25, 0x015C	; 0x80015c <LORAWAN_RX1_SPREADING_FACTOR>
    2acc:	89 0f       	add	r24, r25
    2ace:	80 93 5c 01 	sts	0x015C, r24	; 0x80015c <LORAWAN_RX1_SPREADING_FACTOR>
	
	LORAWAN_RX1_DELAY_SECONDS = eeprom_driver_read_uint8_t(app_number, 7);
    2ad2:	67 e0       	ldi	r22, 0x07	; 7
    2ad4:	80 91 2b 05 	lds	r24, 0x052B	; 0x80052b <app_number>
    2ad8:	0e 94 d4 02 	call	0x5a8	; 0x5a8 <eeprom_driver_read_uint8_t>
    2adc:	80 93 5e 01 	sts	0x015E, r24	; 0x80015e <LORAWAN_RX1_DELAY_SECONDS>
	LORAWAN_RX2_DELAY_SECONDS = LORAWAN_RX1_DELAY_SECONDS + 1;
    2ae0:	80 91 5e 01 	lds	r24, 0x015E	; 0x80015e <LORAWAN_RX1_DELAY_SECONDS>
    2ae4:	8f 5f       	subi	r24, 0xFF	; 255
    2ae6:	80 93 5d 01 	sts	0x015D, r24	; 0x80015d <LORAWAN_RX2_DELAY_SECONDS>
	//LORAWAN_RX1_DELAY_SECONDS = 5;
	//LORAWAN_RX2_DELAY_SECONDS = LORAWAN_RX1_DELAY_SECONDS + 1;
	
	uart_put("App_Nonce");
    2aea:	8d e4       	ldi	r24, 0x4D	; 77
    2aec:	93 e0       	ldi	r25, 0x03	; 3
    2aee:	9f 93       	push	r25
    2af0:	8f 93       	push	r24
    2af2:	0e 94 74 1f 	call	0x3ee8	; 0x3ee8 <uart_put>
	uart_putn(device_config.app_nonce);
    2af6:	83 e5       	ldi	r24, 0x53	; 83
    2af8:	91 e0       	ldi	r25, 0x01	; 1
    2afa:	0e 94 58 1f 	call	0x3eb0	; 0x3eb0 <uart_putn>
	uart_put("Restored");
    2afe:	87 e5       	ldi	r24, 0x57	; 87
    2b00:	93 e0       	ldi	r25, 0x03	; 3
    2b02:	9f 93       	push	r25
    2b04:	8f 93       	push	r24
    2b06:	0e 94 74 1f 	call	0x3ee8	; 0x3ee8 <uart_put>
	LORAWAN_RX1_SPREADING_FACTOR = LORAWAN_RX1_SPREADING_FACTOR + ((device_config.download_settings &  0b01110000) >> 4);
	LORAWAN_RX1_DELAY_SECONDS = lorawan_read_otaa_information(LORAWAN_RXD_ADDRESS);
	LORAWAN_RX2_DELAY_SECONDS = LORAWAN_RX1_DELAY_SECONDS + 1;
}
**/
}
    2b0a:	0f 90       	pop	r0
    2b0c:	0f 90       	pop	r0
    2b0e:	0f 90       	pop	r0
    2b10:	0f 90       	pop	r0
    2b12:	08 95       	ret

00002b14 <lorawan_init>:
	.network_session_key = { 0x1E, 0xB1, 0x0E, 0x1E, 0x3F, 0x1F, 0x89, 0x59, 0x7C, 0xF6, 0x37, 0x94, 0xDA, 0x2C, 0xB8, 0xC8 },
	.device_address = 0x260B8F77
};
#endif

lorawan_state* lorawan_init(uint8_t chip_select) {	
    2b14:	ef 92       	push	r14
    2b16:	ff 92       	push	r15
    2b18:	0f 93       	push	r16
    2b1a:	1f 93       	push	r17
    2b1c:	cf 93       	push	r28
    2b1e:	df 93       	push	r29
    2b20:	1f 92       	push	r1
    2b22:	cd b7       	in	r28, 0x3d	; 61
    2b24:	de b7       	in	r29, 0x3e	; 62
    2b26:	e8 2e       	mov	r14, r24
	#if OTAA_ABP

	uint8_t size_of_memory = 10;
	app_number = eeprom_register_app(array_of_memory, size_of_memory);
    2b28:	6a e0       	ldi	r22, 0x0A	; 10
    2b2a:	8f e5       	ldi	r24, 0x5F	; 95
    2b2c:	91 e0       	ldi	r25, 0x01	; 1
    2b2e:	0e 94 66 03 	call	0x6cc	; 0x6cc <eeprom_register_app>
    2b32:	80 93 2b 05 	sts	0x052B, r24	; 0x80052b <app_number>
	#else
		//round up by default
		__ticks_dc = (uint32_t)(ceil(fabs(__tmp)));
	#endif

	__builtin_avr_delay_cycles(__ticks_dc);
    2b36:	2f e7       	ldi	r18, 0x7F	; 127
    2b38:	34 e8       	ldi	r19, 0x84	; 132
    2b3a:	8e e1       	ldi	r24, 0x1E	; 30
    2b3c:	21 50       	subi	r18, 0x01	; 1
    2b3e:	30 40       	sbci	r19, 0x00	; 0
    2b40:	80 40       	sbci	r24, 0x00	; 0
    2b42:	e1 f7       	brne	.-8      	; 0x2b3c <lorawan_init+0x28>
    2b44:	00 c0       	rjmp	.+0      	; 0x2b46 <lorawan_init+0x32>
    2b46:	00 00       	nop

	_delay_ms(1000);

	uint8_t loraForceReJoin = 0;
	//loraForceReJoin = eeprom_read_uint8_t(app_number, 8);
	loraForceReJoin = eeprom_driver_read_uint8_t(app_number, 8);
    2b48:	68 e0       	ldi	r22, 0x08	; 8
    2b4a:	80 91 2b 05 	lds	r24, 0x052B	; 0x80052b <app_number>
    2b4e:	0e 94 d4 02 	call	0x5a8	; 0x5a8 <eeprom_driver_read_uint8_t>
    2b52:	f8 2e       	mov	r15, r24

	uart_put("ForceReJoin");
    2b54:	80 e6       	ldi	r24, 0x60	; 96
    2b56:	93 e0       	ldi	r25, 0x03	; 3
    2b58:	9f 93       	push	r25
    2b5a:	8f 93       	push	r24
    2b5c:	0e 94 74 1f 	call	0x3ee8	; 0x3ee8 <uart_put>
	uart_putn(loraForceReJoin);
    2b60:	8f 2d       	mov	r24, r15
    2b62:	0e 94 58 1f 	call	0x3eb0	; 0x3eb0 <uart_putn>
	uart_put("");
    2b66:	8c e1       	ldi	r24, 0x1C	; 28
    2b68:	92 e0       	ldi	r25, 0x02	; 2
    2b6a:	9f 93       	push	r25
    2b6c:	8f 93       	push	r24
    2b6e:	0e 94 74 1f 	call	0x3ee8	; 0x3ee8 <uart_put>

	//uint8_t loraForceReJoin = lorawan_read_otaa_information(LORAWAN_FORCE_OTAA_JOIN);

	//LORAWAN_NWKSKWY_FF = lorawan_read_otaa_information(LORAWAN_NWKSKWY_ADDRESS);
	LORAWAN_NWKSKWY_FF = eeprom_driver_read_uint8_t(app_number, 1);
    2b72:	61 e0       	ldi	r22, 0x01	; 1
    2b74:	80 91 2b 05 	lds	r24, 0x052B	; 0x80052b <app_number>
    2b78:	0e 94 d4 02 	call	0x5a8	; 0x5a8 <eeprom_driver_read_uint8_t>
    2b7c:	80 93 1f 05 	sts	0x051F, r24	; 0x80051f <LORAWAN_NWKSKWY_FF>
	//uart_puts("NWK: \n");
	//uart_putn(LORAWAN_NWKSKWY_FF);
	//uart_puts("\n");

	if (LORAWAN_NWKSKWY_FF == 255 && loraForceReJoin != LORAWAN_TIMEOUT_CONNECTION_LIMIT)//Abfrage  ob frischer EEPROM vorliegt. Wenn ja FORCE_OTAA_JOIN
    2b80:	80 91 1f 05 	lds	r24, 0x051F	; 0x80051f <LORAWAN_NWKSKWY_FF>
    2b84:	0f 90       	pop	r0
    2b86:	0f 90       	pop	r0
    2b88:	0f 90       	pop	r0
    2b8a:	0f 90       	pop	r0
    2b8c:	8f 3f       	cpi	r24, 0xFF	; 255
    2b8e:	19 f5       	brne	.+70     	; 0x2bd6 <lorawan_init+0xc2>
    2b90:	80 91 5a 01 	lds	r24, 0x015A	; 0x80015a <LORAWAN_TIMEOUT_CONNECTION_LIMIT>
    2b94:	f8 16       	cp	r15, r24
    2b96:	f9 f0       	breq	.+62     	; 0x2bd6 <lorawan_init+0xc2>
	{

		//loraForceReJoin = LORAWAN_TIMEOUT_CONNECTION_LIMIT;

		//lorawan_write_otaa_information(LORAWAN_FORCE_OTAA_JOIN, loraForceReJoin);
		uint8_t temp[1] = {LORAWAN_TIMEOUT_CONNECTION_LIMIT};
    2b98:	80 91 5a 01 	lds	r24, 0x015A	; 0x80015a <LORAWAN_TIMEOUT_CONNECTION_LIMIT>
    2b9c:	89 83       	std	Y+1, r24	; 0x01
		eeprom_driver_write(app_number,temp, 8);
    2b9e:	48 e0       	ldi	r20, 0x08	; 8
    2ba0:	be 01       	movw	r22, r28
    2ba2:	6f 5f       	subi	r22, 0xFF	; 255
    2ba4:	7f 4f       	sbci	r23, 0xFF	; 255
    2ba6:	80 91 2b 05 	lds	r24, 0x052B	; 0x80052b <app_number>
    2baa:	0e 94 5b 02 	call	0x4b6	; 0x4b6 <eeprom_driver_write>

		uart_put("New memory detected...");
    2bae:	8c e6       	ldi	r24, 0x6C	; 108
    2bb0:	93 e0       	ldi	r25, 0x03	; 3
    2bb2:	9f 93       	push	r25
    2bb4:	8f 93       	push	r24
    2bb6:	0e 94 74 1f 	call	0x3ee8	; 0x3ee8 <uart_put>
    2bba:	9f e7       	ldi	r25, 0x7F	; 127
    2bbc:	24 e8       	ldi	r18, 0x84	; 132
    2bbe:	3e e1       	ldi	r19, 0x1E	; 30
    2bc0:	91 50       	subi	r25, 0x01	; 1
    2bc2:	20 40       	sbci	r18, 0x00	; 0
    2bc4:	30 40       	sbci	r19, 0x00	; 0
    2bc6:	e1 f7       	brne	.-8      	; 0x2bc0 <lorawan_init+0xac>
    2bc8:	00 c0       	rjmp	.+0      	; 0x2bca <lorawan_init+0xb6>
    2bca:	00 00       	nop
		_delay_ms(1000);		//Waiting for UART
		WDTCSR = (1 << WDE);
    2bcc:	88 e0       	ldi	r24, 0x08	; 8
    2bce:	80 93 60 00 	sts	0x0060, r24	; 0x800060 <__TEXT_REGION_LENGTH__+0x7e0060>
    2bd2:	0f 90       	pop	r0
    2bd4:	0f 90       	pop	r0
		//_delay_ms(100);
		//asm("jmp 0x0000");	
	}
	
	
	DDRD &= ~(1 << PORTD2);
    2bd6:	8a b1       	in	r24, 0x0a	; 10
    2bd8:	8b 7f       	andi	r24, 0xFB	; 251
    2bda:	8a b9       	out	0x0a, r24	; 10
	PORTD |= 0x04;                      // Activate pullupressistor of PD2
    2bdc:	8b b1       	in	r24, 0x0b	; 11
    2bde:	84 60       	ori	r24, 0x04	; 4
    2be0:	8b b9       	out	0x0b, r24	; 11
    2be2:	8f e3       	ldi	r24, 0x3F	; 63
    2be4:	9d e0       	ldi	r25, 0x0D	; 13
    2be6:	23 e0       	ldi	r18, 0x03	; 3
    2be8:	81 50       	subi	r24, 0x01	; 1
    2bea:	90 40       	sbci	r25, 0x00	; 0
    2bec:	20 40       	sbci	r18, 0x00	; 0
    2bee:	e1 f7       	brne	.-8      	; 0x2be8 <lorawan_init+0xd4>
    2bf0:	00 c0       	rjmp	.+0      	; 0x2bf2 <lorawan_init+0xde>
    2bf2:	00 00       	nop
	_delay_ms(100);

	if(((PIND & (1<<PORTD2)&&loraForceReJoin == LORAWAN_TIMEOUT_CONNECTION_LIMIT))||(!(PIND & (1<<PORTD2)))){
    2bf4:	4a 9b       	sbis	0x09, 2	; 9
    2bf6:	04 c0       	rjmp	.+8      	; 0x2c00 <lorawan_init+0xec>
    2bf8:	80 91 5a 01 	lds	r24, 0x015A	; 0x80015a <LORAWAN_TIMEOUT_CONNECTION_LIMIT>
    2bfc:	f8 16       	cp	r15, r24
    2bfe:	11 f0       	breq	.+4      	; 0x2c04 <lorawan_init+0xf0>
    2c00:	4a 99       	sbic	0x09, 2	; 9
    2c02:	05 c0       	rjmp	.+10     	; 0x2c0e <lorawan_init+0xfa>
		uart_puts("Skip memory load...\r\n");
    2c04:	83 e8       	ldi	r24, 0x83	; 131
    2c06:	93 e0       	ldi	r25, 0x03	; 3
    2c08:	0e 94 4c 1f 	call	0x3e98	; 0x3e98 <uart_puts>
    2c0c:	05 c0       	rjmp	.+10     	; 0x2c18 <lorawan_init+0x104>
	}
	else
	{
		lorawan_restore_session();	//Restore keys and parameter from last session
    2c0e:	1b df       	rcall	.-458    	; 0x2a46 <lorawan_restore_session>
		uart_puts("Restore config...\r\n");
    2c10:	89 e9       	ldi	r24, 0x99	; 153
    2c12:	93 e0       	ldi	r25, 0x03	; 3
    2c14:	0e 94 4c 1f 	call	0x3e98	; 0x3e98 <uart_puts>
	}

	eeprom_driver_read(device_config.dev_nonce, app_number, 9);
    2c18:	49 e0       	ldi	r20, 0x09	; 9
    2c1a:	60 91 2b 05 	lds	r22, 0x052B	; 0x80052b <app_number>
    2c1e:	81 e5       	ldi	r24, 0x51	; 81
    2c20:	91 e0       	ldi	r25, 0x01	; 1
    2c22:	0e 94 e3 02 	call	0x5c6	; 0x5c6 <eeprom_driver_read>

	
	#endif
	
	
	lorawan_state *state = lorawan_packets_init(device_config);
    2c26:	8d b7       	in	r24, 0x3d	; 61
    2c28:	9e b7       	in	r25, 0x3e	; 62
    2c2a:	8d 54       	subi	r24, 0x4D	; 77
    2c2c:	91 09       	sbc	r25, r1
    2c2e:	0f b6       	in	r0, 0x3f	; 63
    2c30:	f8 94       	cli
    2c32:	9e bf       	out	0x3e, r25	; 62
    2c34:	0f be       	out	0x3f, r0	; 63
    2c36:	8d bf       	out	0x3d, r24	; 61
    2c38:	ad b7       	in	r26, 0x3d	; 61
    2c3a:	be b7       	in	r27, 0x3e	; 62
    2c3c:	11 96       	adiw	r26, 0x01	; 1
    2c3e:	8d e4       	ldi	r24, 0x4D	; 77
    2c40:	ed e0       	ldi	r30, 0x0D	; 13
    2c42:	f1 e0       	ldi	r31, 0x01	; 1
    2c44:	01 90       	ld	r0, Z+
    2c46:	0d 92       	st	X+, r0
    2c48:	8a 95       	dec	r24
    2c4a:	e1 f7       	brne	.-8      	; 0x2c44 <lorawan_init+0x130>
    2c4c:	0e 94 7f 0d 	call	0x1afe	; 0x1afe <lorawan_packets_init>
    2c50:	8c 01       	movw	r16, r24
	rfm95_init(chip_select);
    2c52:	0f b6       	in	r0, 0x3f	; 63
    2c54:	f8 94       	cli
    2c56:	de bf       	out	0x3e, r29	; 62
    2c58:	0f be       	out	0x3f, r0	; 63
    2c5a:	cd bf       	out	0x3d, r28	; 61
    2c5c:	8e 2d       	mov	r24, r14
    2c5e:	de d0       	rcall	.+444    	; 0x2e1c <rfm95_init>
	uart_put("RFM init");
    2c60:	8d ea       	ldi	r24, 0xAD	; 173
    2c62:	93 e0       	ldi	r25, 0x03	; 3
    2c64:	9f 93       	push	r25
    2c66:	8f 93       	push	r24
    2c68:	0e 94 74 1f 	call	0x3ee8	; 0x3ee8 <uart_put>
	
	#if OTAA_ABP	//If keys are not set, do OTAA
	if(device_config.network_session_key[0] == 0 || device_config.app_session_key[0] == 0 || device_config.device_address[0] == 0 || !(PIND & (1<<PORTD2))||loraForceReJoin == LORAWAN_TIMEOUT_CONNECTION_LIMIT){
    2c6c:	80 91 39 01 	lds	r24, 0x0139	; 0x800139 <device_config+0x2c>
    2c70:	0f 90       	pop	r0
    2c72:	0f 90       	pop	r0
    2c74:	88 23       	and	r24, r24
    2c76:	71 f0       	breq	.+28     	; 0x2c94 <lorawan_init+0x180>
    2c78:	80 91 29 01 	lds	r24, 0x0129	; 0x800129 <device_config+0x1c>
    2c7c:	88 23       	and	r24, r24
    2c7e:	51 f0       	breq	.+20     	; 0x2c94 <lorawan_init+0x180>
    2c80:	80 91 0d 01 	lds	r24, 0x010D	; 0x80010d <device_config>
    2c84:	88 23       	and	r24, r24
    2c86:	31 f0       	breq	.+12     	; 0x2c94 <lorawan_init+0x180>
    2c88:	4a 9b       	sbis	0x09, 2	; 9
    2c8a:	04 c0       	rjmp	.+8      	; 0x2c94 <lorawan_init+0x180>
    2c8c:	80 91 5a 01 	lds	r24, 0x015A	; 0x80015a <LORAWAN_TIMEOUT_CONNECTION_LIMIT>
    2c90:	f8 12       	cpse	r15, r24
    2c92:	7a c0       	rjmp	.+244    	; 0x2d88 <lorawan_init+0x274>
		
		uint8_t temp = 0;
		//lorawan_write_otaa_information(LORAWAN_FORCE_OTAA_JOIN, 0);
		eeprom_driver_write(app_number, temp, 8);
    2c94:	48 e0       	ldi	r20, 0x08	; 8
    2c96:	60 e0       	ldi	r22, 0x00	; 0
    2c98:	70 e0       	ldi	r23, 0x00	; 0
    2c9a:	80 91 2b 05 	lds	r24, 0x052B	; 0x80052b <app_number>
    2c9e:	0e 94 5b 02 	call	0x4b6	; 0x4b6 <eeprom_driver_write>

		loraForceReJoin = 0;
		device_config.network_session_key[0] = 0;
    2ca2:	10 92 39 01 	sts	0x0139, r1	; 0x800139 <device_config+0x2c>
		uart_puts("Doing OTAA...\r\n");
    2ca6:	86 eb       	ldi	r24, 0xB6	; 182
    2ca8:	93 e0       	ldi	r25, 0x03	; 3
    2caa:	0e 94 4c 1f 	call	0x3e98	; 0x3e98 <uart_puts>
    2cae:	3f e3       	ldi	r19, 0x3F	; 63
    2cb0:	8d e0       	ldi	r24, 0x0D	; 13
    2cb2:	93 e0       	ldi	r25, 0x03	; 3
    2cb4:	31 50       	subi	r19, 0x01	; 1
    2cb6:	80 40       	sbci	r24, 0x00	; 0
    2cb8:	90 40       	sbci	r25, 0x00	; 0
    2cba:	e1 f7       	brne	.-8      	; 0x2cb4 <lorawan_init+0x1a0>
    2cbc:	00 c0       	rjmp	.+0      	; 0x2cbe <lorawan_init+0x1aa>
    2cbe:	00 00       	nop
		_delay_ms(100);
		do{
			uart_puts(state);
    2cc0:	c8 01       	movw	r24, r16
    2cc2:	0e 94 4c 1f 	call	0x3e98	; 0x3e98 <uart_puts>
			uart_put("%s %d", "[dev nonce]:", device_config.dev_nonce[1]);
    2cc6:	80 91 52 01 	lds	r24, 0x0152	; 0x800152 <device_config+0x45>
    2cca:	1f 92       	push	r1
    2ccc:	8f 93       	push	r24
    2cce:	86 ec       	ldi	r24, 0xC6	; 198
    2cd0:	93 e0       	ldi	r25, 0x03	; 3
    2cd2:	9f 93       	push	r25
    2cd4:	8f 93       	push	r24
    2cd6:	83 ed       	ldi	r24, 0xD3	; 211
    2cd8:	93 e0       	ldi	r25, 0x03	; 3
    2cda:	9f 93       	push	r25
    2cdc:	8f 93       	push	r24
    2cde:	0e 94 74 1f 	call	0x3ee8	; 0x3ee8 <uart_put>
			lorawan_do_otaa(state);
    2ce2:	c8 01       	movw	r24, r16
    2ce4:	59 de       	rcall	.-846    	; 0x2998 <lorawan_do_otaa>
    2ce6:	2a e2       	ldi	r18, 0x2A	; 42
    2ce8:	30 e5       	ldi	r19, 0x50	; 80
    2cea:	8e ef       	ldi	r24, 0xFE	; 254
    2cec:	90 e0       	ldi	r25, 0x00	; 0
    2cee:	21 50       	subi	r18, 0x01	; 1
    2cf0:	30 40       	sbci	r19, 0x00	; 0
    2cf2:	80 40       	sbci	r24, 0x00	; 0
    2cf4:	90 40       	sbci	r25, 0x00	; 0
    2cf6:	d9 f7       	brne	.-10     	; 0x2cee <lorawan_init+0x1da>
    2cf8:	00 00       	nop
			_delay_ms(10000);	//wait 10s. When failing, try again
			
			if(device_config.network_session_key[0] == 0){
    2cfa:	80 91 39 01 	lds	r24, 0x0139	; 0x800139 <device_config+0x2c>
    2cfe:	0f 90       	pop	r0
    2d00:	0f 90       	pop	r0
    2d02:	0f 90       	pop	r0
    2d04:	0f 90       	pop	r0
    2d06:	0f 90       	pop	r0
    2d08:	0f 90       	pop	r0
    2d0a:	81 11       	cpse	r24, r1
    2d0c:	1f c0       	rjmp	.+62     	; 0x2d4c <lorawan_init+0x238>
				if(device_config.dev_nonce[1] < 255){	//IMPORTANT!!! -> if the device needs more join-request to sent until a join-accept will be received, the device need to increment the devNonce.
    2d0e:	80 91 52 01 	lds	r24, 0x0152	; 0x800152 <device_config+0x45>
    2d12:	8f 3f       	cpi	r24, 0xFF	; 255
    2d14:	21 f0       	breq	.+8      	; 0x2d1e <lorawan_init+0x20a>
					device_config.dev_nonce[1]++;		//				  otherwise the packages will not be answered by the application server.
    2d16:	8f 5f       	subi	r24, 0xFF	; 255
    2d18:	80 93 52 01 	sts	0x0152, r24	; 0x800152 <device_config+0x45>
    2d1c:	10 c0       	rjmp	.+32     	; 0x2d3e <lorawan_init+0x22a>
				} else if (device_config.dev_nonce[1] == 255 && device_config.dev_nonce[0] < 255){
    2d1e:	8f 3f       	cpi	r24, 0xFF	; 255
    2d20:	51 f4       	brne	.+20     	; 0x2d36 <lorawan_init+0x222>
    2d22:	80 91 51 01 	lds	r24, 0x0151	; 0x800151 <device_config+0x44>
    2d26:	8f 3f       	cpi	r24, 0xFF	; 255
    2d28:	31 f0       	breq	.+12     	; 0x2d36 <lorawan_init+0x222>
					device_config.dev_nonce[1] = 0;
    2d2a:	10 92 52 01 	sts	0x0152, r1	; 0x800152 <device_config+0x45>
					device_config.dev_nonce[0]++;
    2d2e:	8f 5f       	subi	r24, 0xFF	; 255
    2d30:	80 93 51 01 	sts	0x0151, r24	; 0x800151 <device_config+0x44>
    2d34:	04 c0       	rjmp	.+8      	; 0x2d3e <lorawan_init+0x22a>
				} else{
					device_config.dev_nonce[1] = 0;
    2d36:	10 92 52 01 	sts	0x0152, r1	; 0x800152 <device_config+0x45>
					device_config.dev_nonce[0] = 0;
    2d3a:	10 92 51 01 	sts	0x0151, r1	; 0x800151 <device_config+0x44>
				}
				
				eeprom_driver_write(app_number, device_config.dev_nonce, 9);
    2d3e:	49 e0       	ldi	r20, 0x09	; 9
    2d40:	61 e5       	ldi	r22, 0x51	; 81
    2d42:	71 e0       	ldi	r23, 0x01	; 1
    2d44:	80 91 2b 05 	lds	r24, 0x052B	; 0x80052b <app_number>
    2d48:	0e 94 5b 02 	call	0x4b6	; 0x4b6 <eeprom_driver_write>
				//lorawan_write_otaa_information(LORAWAN_DEVNONCE_ADDRESS,device_config.dev_nonce[0]);	//store the increased devNonce
				//lorawan_write_otaa_information(LORAWAN_DEVNONCE_ADDRESS+1,device_config.dev_nonce[1]);
			}
		}while(device_config.network_session_key[0] == 0);
    2d4c:	80 91 39 01 	lds	r24, 0x0139	; 0x800139 <device_config+0x2c>
    2d50:	88 23       	and	r24, r24
    2d52:	09 f4       	brne	.+2      	; 0x2d56 <lorawan_init+0x242>
    2d54:	b5 cf       	rjmp	.-150    	; 0x2cc0 <lorawan_init+0x1ac>
		
		state->device_config = device_config; //setting the new keys and settings to state
    2d56:	8d e4       	ldi	r24, 0x4D	; 77
    2d58:	ed e0       	ldi	r30, 0x0D	; 13
    2d5a:	f1 e0       	ldi	r31, 0x01	; 1
    2d5c:	d8 01       	movw	r26, r16
    2d5e:	18 96       	adiw	r26, 0x08	; 8
    2d60:	01 90       	ld	r0, Z+
    2d62:	0d 92       	st	X+, r0
    2d64:	8a 95       	dec	r24
    2d66:	e1 f7       	brne	.-8      	; 0x2d60 <lorawan_init+0x24c>
		
		uart_puts("OTAA done...\r\nRebooting...\r\n");
    2d68:	89 ed       	ldi	r24, 0xD9	; 217
    2d6a:	93 e0       	ldi	r25, 0x03	; 3
    2d6c:	0e 94 4c 1f 	call	0x3e98	; 0x3e98 <uart_puts>
    2d70:	2f e7       	ldi	r18, 0x7F	; 127
    2d72:	34 e8       	ldi	r19, 0x84	; 132
    2d74:	8e e1       	ldi	r24, 0x1E	; 30
    2d76:	21 50       	subi	r18, 0x01	; 1
    2d78:	30 40       	sbci	r19, 0x00	; 0
    2d7a:	80 40       	sbci	r24, 0x00	; 0
    2d7c:	e1 f7       	brne	.-8      	; 0x2d76 <lorawan_init+0x262>
    2d7e:	00 c0       	rjmp	.+0      	; 0x2d80 <lorawan_init+0x26c>
    2d80:	00 00       	nop
		
		_delay_ms(1000);		//Waiting for UART
		WDTCSR = (1 << WDE);
    2d82:	88 e0       	ldi	r24, 0x08	; 8
    2d84:	80 93 60 00 	sts	0x0060, r24	; 0x800060 <__TEXT_REGION_LENGTH__+0x7e0060>
		//asm("jmp 0x0000");	//Using the Watchdog to reboot the Atmega16
	}
	#endif
	
	return state;
}
    2d88:	c8 01       	movw	r24, r16
    2d8a:	0f 90       	pop	r0
    2d8c:	df 91       	pop	r29
    2d8e:	cf 91       	pop	r28
    2d90:	1f 91       	pop	r17
    2d92:	0f 91       	pop	r16
    2d94:	ff 90       	pop	r15
    2d96:	ef 90       	pop	r14
    2d98:	08 95       	ret

00002d9a <rfm95_write>:
    2d9a:	ef 92       	push	r14
    2d9c:	ff 92       	push	r15
    2d9e:	0f 93       	push	r16
    2da0:	ed e2       	ldi	r30, 0x2D	; 45
    2da2:	f5 e0       	ldi	r31, 0x05	; 5
    2da4:	80 68       	ori	r24, 0x80	; 128
    2da6:	80 83       	st	Z, r24
    2da8:	61 83       	std	Z+1, r22	; 0x01
    2daa:	e1 2c       	mov	r14, r1
    2dac:	f1 2c       	mov	r15, r1
    2dae:	00 e0       	ldi	r16, 0x00	; 0
    2db0:	22 e0       	ldi	r18, 0x02	; 2
    2db2:	42 e0       	ldi	r20, 0x02	; 2
    2db4:	bf 01       	movw	r22, r30
    2db6:	8f e2       	ldi	r24, 0x2F	; 47
    2db8:	95 e0       	ldi	r25, 0x05	; 5
    2dba:	85 d4       	rcall	.+2314   	; 0x36c6 <spi_write>
    2dbc:	0f 91       	pop	r16
    2dbe:	ff 90       	pop	r15
    2dc0:	ef 90       	pop	r14
    2dc2:	08 95       	ret

00002dc4 <rfm95_read>:
    2dc4:	ef 92       	push	r14
    2dc6:	ff 92       	push	r15
    2dc8:	0f 93       	push	r16
    2dca:	1f 93       	push	r17
    2dcc:	cf 93       	push	r28
    2dce:	df 93       	push	r29
    2dd0:	18 2f       	mov	r17, r24
    2dd2:	81 e0       	ldi	r24, 0x01	; 1
    2dd4:	90 e0       	ldi	r25, 0x00	; 0
    2dd6:	0e 94 95 21 	call	0x432a	; 0x432a <malloc>
    2dda:	ec 01       	movw	r28, r24
    2ddc:	1f 77       	andi	r17, 0x7F	; 127
    2dde:	10 93 2c 05 	sts	0x052C, r17	; 0x80052c <spi_dummy>
    2de2:	e1 2c       	mov	r14, r1
    2de4:	f1 2c       	mov	r15, r1
    2de6:	01 e0       	ldi	r16, 0x01	; 1
    2de8:	22 e0       	ldi	r18, 0x02	; 2
    2dea:	41 e0       	ldi	r20, 0x01	; 1
    2dec:	6c e2       	ldi	r22, 0x2C	; 44
    2dee:	75 e0       	ldi	r23, 0x05	; 5
    2df0:	8f e2       	ldi	r24, 0x2F	; 47
    2df2:	95 e0       	ldi	r25, 0x05	; 5
    2df4:	68 d4       	rcall	.+2256   	; 0x36c6 <spi_write>
    2df6:	02 e0       	ldi	r16, 0x02	; 2
    2df8:	20 e0       	ldi	r18, 0x00	; 0
    2dfa:	41 e0       	ldi	r20, 0x01	; 1
    2dfc:	be 01       	movw	r22, r28
    2dfe:	8f e2       	ldi	r24, 0x2F	; 47
    2e00:	95 e0       	ldi	r25, 0x05	; 5
    2e02:	d1 d4       	rcall	.+2466   	; 0x37a6 <spi_read>
    2e04:	18 81       	ld	r17, Y
    2e06:	ce 01       	movw	r24, r28
    2e08:	0e 94 2d 22 	call	0x445a	; 0x445a <free>
    2e0c:	81 2f       	mov	r24, r17
    2e0e:	df 91       	pop	r29
    2e10:	cf 91       	pop	r28
    2e12:	1f 91       	pop	r17
    2e14:	0f 91       	pop	r16
    2e16:	ff 90       	pop	r15
    2e18:	ef 90       	pop	r14
    2e1a:	08 95       	ret

00002e1c <rfm95_init>:
    2e1c:	cf 93       	push	r28
    2e1e:	c8 2f       	mov	r28, r24
    2e20:	87 ea       	ldi	r24, 0xA7	; 167
    2e22:	91 e6       	ldi	r25, 0x61	; 97
    2e24:	01 97       	sbiw	r24, 0x01	; 1
    2e26:	f1 f7       	brne	.-4      	; 0x2e24 <rfm95_init+0x8>
    2e28:	00 c0       	rjmp	.+0      	; 0x2e2a <rfm95_init+0xe>
    2e2a:	00 00       	nop
    2e2c:	e9 e6       	ldi	r30, 0x69	; 105
    2e2e:	f0 e0       	ldi	r31, 0x00	; 0
    2e30:	80 81       	ld	r24, Z
    2e32:	80 63       	ori	r24, 0x30	; 48
    2e34:	80 83       	st	Z, r24
    2e36:	8c b3       	in	r24, 0x1c	; 28
    2e38:	84 60       	ori	r24, 0x04	; 4
    2e3a:	8c bb       	out	0x1c, r24	; 28
    2e3c:	8d b3       	in	r24, 0x1d	; 29
    2e3e:	84 60       	ori	r24, 0x04	; 4
    2e40:	8d bb       	out	0x1d, r24	; 29
    2e42:	24 e0       	ldi	r18, 0x04	; 4
    2e44:	40 e0       	ldi	r20, 0x00	; 0
    2e46:	60 e0       	ldi	r22, 0x00	; 0
    2e48:	80 e0       	ldi	r24, 0x00	; 0
    2e4a:	71 d5       	rcall	.+2786   	; 0x392e <spi_init>
    2e4c:	4c 2f       	mov	r20, r28
    2e4e:	6c 2f       	mov	r22, r28
    2e50:	8c 2f       	mov	r24, r28
    2e52:	53 d5       	rcall	.+2726   	; 0x38fa <spi_create_slave>
    2e54:	60 93 2f 05 	sts	0x052F, r22	; 0x80052f <my_slave>
    2e58:	70 93 30 05 	sts	0x0530, r23	; 0x800530 <my_slave+0x1>
    2e5c:	80 93 31 05 	sts	0x0531, r24	; 0x800531 <my_slave+0x2>
    2e60:	78 94       	sei
    2e62:	60 e0       	ldi	r22, 0x00	; 0
    2e64:	81 e0       	ldi	r24, 0x01	; 1
    2e66:	99 df       	rcall	.-206    	; 0x2d9a <rfm95_write>
    2e68:	60 e8       	ldi	r22, 0x80	; 128
    2e6a:	81 e0       	ldi	r24, 0x01	; 1
    2e6c:	96 df       	rcall	.-212    	; 0x2d9a <rfm95_write>
    2e6e:	6f ef       	ldi	r22, 0xFF	; 255
    2e70:	89 e0       	ldi	r24, 0x09	; 9
    2e72:	93 df       	rcall	.-218    	; 0x2d9a <rfm95_write>
    2e74:	63 e2       	ldi	r22, 0x23	; 35
    2e76:	8c e0       	ldi	r24, 0x0C	; 12
    2e78:	90 df       	rcall	.-224    	; 0x2d9a <rfm95_write>
    2e7a:	63 e5       	ldi	r22, 0x53	; 83
    2e7c:	83 e3       	ldi	r24, 0x33	; 51
    2e7e:	8d df       	rcall	.-230    	; 0x2d9a <rfm95_write>
    2e80:	64 e3       	ldi	r22, 0x34	; 52
    2e82:	89 e3       	ldi	r24, 0x39	; 57
    2e84:	8a df       	rcall	.-236    	; 0x2d9a <rfm95_write>
    2e86:	cf 91       	pop	r28
    2e88:	08 95       	ret

00002e8a <rfm95_set_frequency>:
    2e8a:	cf 92       	push	r12
    2e8c:	df 92       	push	r13
    2e8e:	ef 92       	push	r14
    2e90:	ff 92       	push	r15
    2e92:	27 ed       	ldi	r18, 0xD7	; 215
    2e94:	33 e2       	ldi	r19, 0x23	; 35
    2e96:	44 e7       	ldi	r20, 0x74	; 116
    2e98:	52 e4       	ldi	r21, 0x42	; 66
    2e9a:	0e 94 99 1f 	call	0x3f32	; 0x3f32 <__divsf3>
    2e9e:	0e 94 01 20 	call	0x4002	; 0x4002 <__fixunssfsi>
    2ea2:	6b 01       	movw	r12, r22
    2ea4:	7c 01       	movw	r14, r24
    2ea6:	b7 01       	movw	r22, r14
    2ea8:	88 27       	eor	r24, r24
    2eaa:	99 27       	eor	r25, r25
    2eac:	86 e0       	ldi	r24, 0x06	; 6
    2eae:	75 df       	rcall	.-278    	; 0x2d9a <rfm95_write>
    2eb0:	99 27       	eor	r25, r25
    2eb2:	8f 2d       	mov	r24, r15
    2eb4:	7e 2d       	mov	r23, r14
    2eb6:	6d 2d       	mov	r22, r13
    2eb8:	87 e0       	ldi	r24, 0x07	; 7
    2eba:	6f df       	rcall	.-290    	; 0x2d9a <rfm95_write>
    2ebc:	6c 2d       	mov	r22, r12
    2ebe:	88 e0       	ldi	r24, 0x08	; 8
    2ec0:	6c df       	rcall	.-296    	; 0x2d9a <rfm95_write>
    2ec2:	ff 90       	pop	r15
    2ec4:	ef 90       	pop	r14
    2ec6:	df 90       	pop	r13
    2ec8:	cf 90       	pop	r12
    2eca:	08 95       	ret

00002ecc <rfm95_set_spreading_factor>:
    2ecc:	20 e1       	ldi	r18, 0x10	; 16
    2ece:	82 9f       	mul	r24, r18
    2ed0:	c0 01       	movw	r24, r0
    2ed2:	11 24       	eor	r1, r1
    2ed4:	68 2f       	mov	r22, r24
    2ed6:	64 60       	ori	r22, 0x04	; 4
    2ed8:	8e e1       	ldi	r24, 0x1E	; 30
    2eda:	5f cf       	rjmp	.-322    	; 0x2d9a <rfm95_write>
    2edc:	08 95       	ret

00002ede <rfm95_send_packet>:
    2ede:	0f 93       	push	r16
    2ee0:	1f 93       	push	r17
    2ee2:	cf 93       	push	r28
    2ee4:	df 93       	push	r29
    2ee6:	8c 01       	movw	r16, r24
    2ee8:	d6 2f       	mov	r29, r22
    2eea:	50 93 35 05 	sts	0x0535, r21	; 0x800535 <packet_sent_callback+0x1>
    2eee:	40 93 34 05 	sts	0x0534, r20	; 0x800534 <packet_sent_callback>
    2ef2:	61 e8       	ldi	r22, 0x81	; 129
    2ef4:	81 e0       	ldi	r24, 0x01	; 1
    2ef6:	51 df       	rcall	.-350    	; 0x2d9a <rfm95_write>
    2ef8:	6d 2f       	mov	r22, r29
    2efa:	82 e2       	ldi	r24, 0x22	; 34
    2efc:	4e df       	rcall	.-356    	; 0x2d9a <rfm95_write>
    2efe:	60 e8       	ldi	r22, 0x80	; 128
    2f00:	8d e0       	ldi	r24, 0x0D	; 13
    2f02:	4b df       	rcall	.-362    	; 0x2d9a <rfm95_write>
    2f04:	c0 e0       	ldi	r28, 0x00	; 0
    2f06:	07 c0       	rjmp	.+14     	; 0x2f16 <rfm95_send_packet+0x38>
    2f08:	f8 01       	movw	r30, r16
    2f0a:	ec 0f       	add	r30, r28
    2f0c:	f1 1d       	adc	r31, r1
    2f0e:	60 81       	ld	r22, Z
    2f10:	80 e0       	ldi	r24, 0x00	; 0
    2f12:	43 df       	rcall	.-378    	; 0x2d9a <rfm95_write>
    2f14:	cf 5f       	subi	r28, 0xFF	; 255
    2f16:	cd 17       	cp	r28, r29
    2f18:	b8 f3       	brcs	.-18     	; 0x2f08 <rfm95_send_packet+0x2a>
    2f1a:	60 e4       	ldi	r22, 0x40	; 64
    2f1c:	80 e4       	ldi	r24, 0x40	; 64
    2f1e:	3d df       	rcall	.-390    	; 0x2d9a <rfm95_write>
    2f20:	63 e8       	ldi	r22, 0x83	; 131
    2f22:	81 e0       	ldi	r24, 0x01	; 1
    2f24:	3a df       	rcall	.-396    	; 0x2d9a <rfm95_write>
    2f26:	df 91       	pop	r29
    2f28:	cf 91       	pop	r28
    2f2a:	1f 91       	pop	r17
    2f2c:	0f 91       	pop	r16
    2f2e:	08 95       	ret

00002f30 <rfm95_start_listening>:
    2f30:	90 93 33 05 	sts	0x0533, r25	; 0x800533 <packet_received_callback+0x1>
    2f34:	80 93 32 05 	sts	0x0532, r24	; 0x800532 <packet_received_callback>
    2f38:	60 e0       	ldi	r22, 0x00	; 0
    2f3a:	80 e4       	ldi	r24, 0x40	; 64
    2f3c:	2e df       	rcall	.-420    	; 0x2d9a <rfm95_write>
    2f3e:	60 e0       	ldi	r22, 0x00	; 0
    2f40:	8d e0       	ldi	r24, 0x0D	; 13
    2f42:	2b df       	rcall	.-426    	; 0x2d9a <rfm95_write>
    2f44:	66 e8       	ldi	r22, 0x86	; 134
    2f46:	81 e0       	ldi	r24, 0x01	; 1
    2f48:	28 cf       	rjmp	.-432    	; 0x2d9a <rfm95_write>
    2f4a:	08 95       	ret

00002f4c <rfm95_read_packet>:
    2f4c:	ef 92       	push	r14
    2f4e:	ff 92       	push	r15
    2f50:	0f 93       	push	r16
    2f52:	1f 93       	push	r17
    2f54:	cf 93       	push	r28
    2f56:	df 93       	push	r29
    2f58:	7c 01       	movw	r14, r24
    2f5a:	83 e1       	ldi	r24, 0x13	; 19
    2f5c:	33 df       	rcall	.-410    	; 0x2dc4 <rfm95_read>
    2f5e:	d8 2f       	mov	r29, r24
    2f60:	88 23       	and	r24, r24
    2f62:	d9 f0       	breq	.+54     	; 0x2f9a <rfm95_read_packet+0x4e>
    2f64:	90 e0       	ldi	r25, 0x00	; 0
    2f66:	0e 94 95 21 	call	0x432a	; 0x432a <malloc>
    2f6a:	f7 01       	movw	r30, r14
    2f6c:	91 83       	std	Z+1, r25	; 0x01
    2f6e:	80 83       	st	Z, r24
    2f70:	89 2b       	or	r24, r25
    2f72:	a9 f0       	breq	.+42     	; 0x2f9e <rfm95_read_packet+0x52>
    2f74:	60 e0       	ldi	r22, 0x00	; 0
    2f76:	8d e0       	ldi	r24, 0x0D	; 13
    2f78:	10 df       	rcall	.-480    	; 0x2d9a <rfm95_write>
    2f7a:	c0 e0       	ldi	r28, 0x00	; 0
    2f7c:	0a c0       	rjmp	.+20     	; 0x2f92 <rfm95_read_packet+0x46>
    2f7e:	f7 01       	movw	r30, r14
    2f80:	00 81       	ld	r16, Z
    2f82:	11 81       	ldd	r17, Z+1	; 0x01
    2f84:	0c 0f       	add	r16, r28
    2f86:	11 1d       	adc	r17, r1
    2f88:	80 e0       	ldi	r24, 0x00	; 0
    2f8a:	1c df       	rcall	.-456    	; 0x2dc4 <rfm95_read>
    2f8c:	f8 01       	movw	r30, r16
    2f8e:	80 83       	st	Z, r24
    2f90:	cf 5f       	subi	r28, 0xFF	; 255
    2f92:	cd 17       	cp	r28, r29
    2f94:	a0 f3       	brcs	.-24     	; 0x2f7e <rfm95_read_packet+0x32>
    2f96:	8d 2f       	mov	r24, r29
    2f98:	03 c0       	rjmp	.+6      	; 0x2fa0 <rfm95_read_packet+0x54>
    2f9a:	80 e0       	ldi	r24, 0x00	; 0
    2f9c:	01 c0       	rjmp	.+2      	; 0x2fa0 <rfm95_read_packet+0x54>
    2f9e:	80 e0       	ldi	r24, 0x00	; 0
    2fa0:	df 91       	pop	r29
    2fa2:	cf 91       	pop	r28
    2fa4:	1f 91       	pop	r17
    2fa6:	0f 91       	pop	r16
    2fa8:	ff 90       	pop	r15
    2faa:	ef 90       	pop	r14
    2fac:	08 95       	ret

00002fae <__vector_3>:
    2fae:	78 94       	sei
    2fb0:	1f 92       	push	r1
    2fb2:	0f 92       	push	r0
    2fb4:	0f b6       	in	r0, 0x3f	; 63
    2fb6:	0f 92       	push	r0
    2fb8:	11 24       	eor	r1, r1
    2fba:	0b b6       	in	r0, 0x3b	; 59
    2fbc:	0f 92       	push	r0
    2fbe:	2f 93       	push	r18
    2fc0:	3f 93       	push	r19
    2fc2:	4f 93       	push	r20
    2fc4:	5f 93       	push	r21
    2fc6:	6f 93       	push	r22
    2fc8:	7f 93       	push	r23
    2fca:	8f 93       	push	r24
    2fcc:	9f 93       	push	r25
    2fce:	af 93       	push	r26
    2fd0:	bf 93       	push	r27
    2fd2:	ef 93       	push	r30
    2fd4:	ff 93       	push	r31
    2fd6:	6f ef       	ldi	r22, 0xFF	; 255
    2fd8:	82 e1       	ldi	r24, 0x12	; 18
    2fda:	df de       	rcall	.-578    	; 0x2d9a <rfm95_write>
    2fdc:	80 91 34 05 	lds	r24, 0x0534	; 0x800534 <packet_sent_callback>
    2fe0:	90 91 35 05 	lds	r25, 0x0535	; 0x800535 <packet_sent_callback+0x1>
    2fe4:	89 2b       	or	r24, r25
    2fe6:	51 f0       	breq	.+20     	; 0x2ffc <__vector_3+0x4e>
    2fe8:	e0 91 34 05 	lds	r30, 0x0534	; 0x800534 <packet_sent_callback>
    2fec:	f0 91 35 05 	lds	r31, 0x0535	; 0x800535 <packet_sent_callback+0x1>
    2ff0:	09 95       	icall
    2ff2:	10 92 35 05 	sts	0x0535, r1	; 0x800535 <packet_sent_callback+0x1>
    2ff6:	10 92 34 05 	sts	0x0534, r1	; 0x800534 <packet_sent_callback>
    2ffa:	0f c0       	rjmp	.+30     	; 0x301a <__vector_3+0x6c>
    2ffc:	80 91 32 05 	lds	r24, 0x0532	; 0x800532 <packet_received_callback>
    3000:	90 91 33 05 	lds	r25, 0x0533	; 0x800533 <packet_received_callback+0x1>
    3004:	89 2b       	or	r24, r25
    3006:	49 f0       	breq	.+18     	; 0x301a <__vector_3+0x6c>
    3008:	e0 91 32 05 	lds	r30, 0x0532	; 0x800532 <packet_received_callback>
    300c:	f0 91 33 05 	lds	r31, 0x0533	; 0x800533 <packet_received_callback+0x1>
    3010:	09 95       	icall
    3012:	10 92 33 05 	sts	0x0533, r1	; 0x800533 <packet_received_callback+0x1>
    3016:	10 92 32 05 	sts	0x0532, r1	; 0x800532 <packet_received_callback>
    301a:	ff 91       	pop	r31
    301c:	ef 91       	pop	r30
    301e:	bf 91       	pop	r27
    3020:	af 91       	pop	r26
    3022:	9f 91       	pop	r25
    3024:	8f 91       	pop	r24
    3026:	7f 91       	pop	r23
    3028:	6f 91       	pop	r22
    302a:	5f 91       	pop	r21
    302c:	4f 91       	pop	r20
    302e:	3f 91       	pop	r19
    3030:	2f 91       	pop	r18
    3032:	0f 90       	pop	r0
    3034:	0b be       	out	0x3b, r0	; 59
    3036:	0f 90       	pop	r0
    3038:	0f be       	out	0x3f, r0	; 63
    303a:	0f 90       	pop	r0
    303c:	1f 90       	pop	r1
    303e:	18 95       	reti

00003040 <downlink_received>:
    3040:	ef 92       	push	r14
    3042:	ff 92       	push	r15
    3044:	0f 93       	push	r16
    3046:	1f 93       	push	r17
    3048:	cf 93       	push	r28
    304a:	df 93       	push	r29
    304c:	00 d0       	rcall	.+0      	; 0x304e <downlink_received+0xe>
    304e:	cd b7       	in	r28, 0x3d	; 61
    3050:	de b7       	in	r29, 0x3e	; 62
    3052:	be 01       	movw	r22, r28
    3054:	6f 5f       	subi	r22, 0xFF	; 255
    3056:	7f 4f       	sbci	r23, 0xFF	; 255
    3058:	80 91 36 05 	lds	r24, 0x0536	; 0x800536 <state>
    305c:	90 91 37 05 	lds	r25, 0x0537	; 0x800537 <state+0x1>
    3060:	a0 db       	rcall	.-2240   	; 0x27a2 <lorawan_read_received_data>
    3062:	08 2f       	mov	r16, r24
    3064:	86 ef       	ldi	r24, 0xF6	; 246
    3066:	93 e0       	ldi	r25, 0x03	; 3
    3068:	17 d7       	rcall	.+3630   	; 0x3e98 <uart_puts>
    306a:	00 23       	and	r16, r16
    306c:	01 f1       	breq	.+64     	; 0x30ae <downlink_received+0x6e>
    306e:	84 e0       	ldi	r24, 0x04	; 4
    3070:	90 e0       	ldi	r25, 0x00	; 0
    3072:	0e 94 95 21 	call	0x432a	; 0x432a <malloc>
    3076:	7c 01       	movw	r14, r24
    3078:	01 11       	cpse	r16, r1
    307a:	0f c0       	rjmp	.+30     	; 0x309a <downlink_received+0x5a>
    307c:	11 c0       	rjmp	.+34     	; 0x30a0 <downlink_received+0x60>
    307e:	e9 81       	ldd	r30, Y+1	; 0x01
    3080:	fa 81       	ldd	r31, Y+2	; 0x02
    3082:	e1 0f       	add	r30, r17
    3084:	f1 1d       	adc	r31, r1
    3086:	80 81       	ld	r24, Z
    } else if (__radix < 2 || __radix > 36) {
	*__s = 0;
	return __s;
    } else {
	extern char *__itoa_ncheck (int, char *, unsigned char);
	return __itoa_ncheck (__val, __s, __radix);
    3088:	40 e1       	ldi	r20, 0x10	; 16
    308a:	b7 01       	movw	r22, r14
    308c:	90 e0       	ldi	r25, 0x00	; 0
    308e:	0e 94 2c 23 	call	0x4658	; 0x4658 <__itoa_ncheck>
    3092:	c7 01       	movw	r24, r14
    3094:	01 d7       	rcall	.+3586   	; 0x3e98 <uart_puts>
    3096:	1f 5f       	subi	r17, 0xFF	; 255
    3098:	01 c0       	rjmp	.+2      	; 0x309c <downlink_received+0x5c>
    309a:	10 e0       	ldi	r17, 0x00	; 0
    309c:	10 17       	cp	r17, r16
    309e:	78 f3       	brcs	.-34     	; 0x307e <downlink_received+0x3e>
    30a0:	c7 01       	movw	r24, r14
    30a2:	0e 94 2d 22 	call	0x445a	; 0x445a <free>
    30a6:	89 81       	ldd	r24, Y+1	; 0x01
    30a8:	9a 81       	ldd	r25, Y+2	; 0x02
    30aa:	0e 94 2d 22 	call	0x445a	; 0x445a <free>
    30ae:	0f 90       	pop	r0
    30b0:	0f 90       	pop	r0
    30b2:	df 91       	pop	r29
    30b4:	cf 91       	pop	r28
    30b6:	1f 91       	pop	r17
    30b8:	0f 91       	pop	r16
    30ba:	ff 90       	pop	r15
    30bc:	ef 90       	pop	r14
    30be:	08 95       	ret

000030c0 <main>:
    30c0:	f8 94       	cli
    30c2:	a8 95       	wdr
    30c4:	84 b7       	in	r24, 0x34	; 52
    30c6:	87 7f       	andi	r24, 0xF7	; 247
    30c8:	84 bf       	out	0x34, r24	; 52
    30ca:	e0 e6       	ldi	r30, 0x60	; 96
    30cc:	f0 e0       	ldi	r31, 0x00	; 0
    30ce:	80 81       	ld	r24, Z
    30d0:	88 61       	ori	r24, 0x18	; 24
    30d2:	80 83       	st	Z, r24
    30d4:	10 82       	st	Z, r1
    30d6:	cd d6       	rcall	.+3482   	; 0x3e72 <uart_init>
    30d8:	8b e0       	ldi	r24, 0x0B	; 11
    30da:	94 e0       	ldi	r25, 0x04	; 4
    30dc:	dd d6       	rcall	.+3514   	; 0x3e98 <uart_puts>
    30de:	0e 94 3b 03 	call	0x676	; 0x676 <eeprom_init>
    30e2:	85 e1       	ldi	r24, 0x15	; 21
    30e4:	94 e0       	ldi	r25, 0x04	; 4
    30e6:	d8 d6       	rcall	.+3504   	; 0x3e98 <uart_puts>
    30e8:	0e 94 8a 04 	call	0x914	; 0x914 <led_init>
    30ec:	80 91 6c 01 	lds	r24, 0x016C	; 0x80016c <addr_tbl+0x3>
    30f0:	11 dd       	rcall	.-1502   	; 0x2b14 <lorawan_init>
    30f2:	90 93 37 05 	sts	0x0537, r25	; 0x800537 <state+0x1>
    30f6:	80 93 36 05 	sts	0x0536, r24	; 0x800536 <state>
    30fa:	84 e1       	ldi	r24, 0x14	; 20
    30fc:	0a c0       	rjmp	.+20     	; 0x3112 <main+0x52>
    30fe:	2f e3       	ldi	r18, 0x3F	; 63
    3100:	32 e4       	ldi	r19, 0x42	; 66
    3102:	8f e0       	ldi	r24, 0x0F	; 15
    3104:	21 50       	subi	r18, 0x01	; 1
    3106:	30 40       	sbci	r19, 0x00	; 0
    3108:	80 40       	sbci	r24, 0x00	; 0
    310a:	e1 f7       	brne	.-8      	; 0x3104 <main+0x44>
    310c:	00 c0       	rjmp	.+0      	; 0x310e <main+0x4e>
    310e:	00 00       	nop
    3110:	89 2f       	mov	r24, r25
    3112:	9f ef       	ldi	r25, 0xFF	; 255
    3114:	98 0f       	add	r25, r24
    3116:	81 11       	cpse	r24, r1
    3118:	f2 cf       	rjmp	.-28     	; 0x30fe <main+0x3e>
    311a:	20 e2       	ldi	r18, 0x20	; 32
    311c:	38 e1       	ldi	r19, 0x18	; 24
    311e:	4c e0       	ldi	r20, 0x0C	; 12
    3120:	61 e2       	ldi	r22, 0x21	; 33
    3122:	74 e0       	ldi	r23, 0x04	; 4
    3124:	80 91 36 05 	lds	r24, 0x0536	; 0x800536 <state>
    3128:	90 91 37 05 	lds	r25, 0x0537	; 0x800537 <state+0x1>
    312c:	87 db       	rcall	.-2290   	; 0x283c <lorawan_send_data>
    312e:	8e e2       	ldi	r24, 0x2E	; 46
    3130:	94 e0       	ldi	r25, 0x04	; 4
    3132:	9f 93       	push	r25
    3134:	8f 93       	push	r24
    3136:	d8 d6       	rcall	.+3504   	; 0x3ee8 <uart_put>
    3138:	0f 90       	pop	r0
    313a:	0f 90       	pop	r0
    313c:	84 e1       	ldi	r24, 0x14	; 20
    313e:	e9 cf       	rjmp	.-46     	; 0x3112 <main+0x52>

00003140 <output_deactivate_interrupt>:
    3140:	8d b3       	in	r24, 0x1d	; 29
    3142:	8e 7f       	andi	r24, 0xFE	; 254
    3144:	8d bb       	out	0x1d, r24	; 29
    3146:	8d b3       	in	r24, 0x1d	; 29
    3148:	8d 7f       	andi	r24, 0xFD	; 253
    314a:	8d bb       	out	0x1d, r24	; 29
    314c:	e9 e6       	ldi	r30, 0x69	; 105
    314e:	f0 e0       	ldi	r31, 0x00	; 0
    3150:	80 81       	ld	r24, Z
    3152:	87 7f       	andi	r24, 0xF7	; 247
    3154:	80 83       	st	Z, r24
    3156:	80 81       	ld	r24, Z
    3158:	8d 7f       	andi	r24, 0xFD	; 253
    315a:	80 83       	st	Z, r24
    315c:	80 e0       	ldi	r24, 0x00	; 0
    315e:	08 95       	ret

00003160 <__vector_1>:
    3160:	1f 92       	push	r1
    3162:	0f 92       	push	r0
    3164:	0f b6       	in	r0, 0x3f	; 63
    3166:	0f 92       	push	r0
    3168:	11 24       	eor	r1, r1
    316a:	0b b6       	in	r0, 0x3b	; 59
    316c:	0f 92       	push	r0
    316e:	2f 93       	push	r18
    3170:	3f 93       	push	r19
    3172:	4f 93       	push	r20
    3174:	5f 93       	push	r21
    3176:	6f 93       	push	r22
    3178:	7f 93       	push	r23
    317a:	8f 93       	push	r24
    317c:	9f 93       	push	r25
    317e:	af 93       	push	r26
    3180:	bf 93       	push	r27
    3182:	ef 93       	push	r30
    3184:	ff 93       	push	r31
    3186:	0e 94 da 01 	call	0x3b4	; 0x3b4 <LCD_MoveDown>
    318a:	da df       	rcall	.-76     	; 0x3140 <output_deactivate_interrupt>
    318c:	ff 91       	pop	r31
    318e:	ef 91       	pop	r30
    3190:	bf 91       	pop	r27
    3192:	af 91       	pop	r26
    3194:	9f 91       	pop	r25
    3196:	8f 91       	pop	r24
    3198:	7f 91       	pop	r23
    319a:	6f 91       	pop	r22
    319c:	5f 91       	pop	r21
    319e:	4f 91       	pop	r20
    31a0:	3f 91       	pop	r19
    31a2:	2f 91       	pop	r18
    31a4:	0f 90       	pop	r0
    31a6:	0b be       	out	0x3b, r0	; 59
    31a8:	0f 90       	pop	r0
    31aa:	0f be       	out	0x3f, r0	; 63
    31ac:	0f 90       	pop	r0
    31ae:	1f 90       	pop	r1
    31b0:	18 95       	reti

000031b2 <__vector_2>:
    31b2:	1f 92       	push	r1
    31b4:	0f 92       	push	r0
    31b6:	0f b6       	in	r0, 0x3f	; 63
    31b8:	0f 92       	push	r0
    31ba:	11 24       	eor	r1, r1
    31bc:	0b b6       	in	r0, 0x3b	; 59
    31be:	0f 92       	push	r0
    31c0:	2f 93       	push	r18
    31c2:	3f 93       	push	r19
    31c4:	4f 93       	push	r20
    31c6:	5f 93       	push	r21
    31c8:	6f 93       	push	r22
    31ca:	7f 93       	push	r23
    31cc:	8f 93       	push	r24
    31ce:	9f 93       	push	r25
    31d0:	af 93       	push	r26
    31d2:	bf 93       	push	r27
    31d4:	ef 93       	push	r30
    31d6:	ff 93       	push	r31
    31d8:	0e 94 c8 01 	call	0x390	; 0x390 <LCD_MoveUp>
    31dc:	b1 df       	rcall	.-158    	; 0x3140 <output_deactivate_interrupt>
    31de:	ff 91       	pop	r31
    31e0:	ef 91       	pop	r30
    31e2:	bf 91       	pop	r27
    31e4:	af 91       	pop	r26
    31e6:	9f 91       	pop	r25
    31e8:	8f 91       	pop	r24
    31ea:	7f 91       	pop	r23
    31ec:	6f 91       	pop	r22
    31ee:	5f 91       	pop	r21
    31f0:	4f 91       	pop	r20
    31f2:	3f 91       	pop	r19
    31f4:	2f 91       	pop	r18
    31f6:	0f 90       	pop	r0
    31f8:	0b be       	out	0x3b, r0	; 59
    31fa:	0f 90       	pop	r0
    31fc:	0f be       	out	0x3f, r0	; 63
    31fe:	0f 90       	pop	r0
    3200:	1f 90       	pop	r1
    3202:	18 95       	reti

00003204 <spi_buffer_init>:
    3204:	fc 01       	movw	r30, r24
    3206:	e0 58       	subi	r30, 0x80	; 128
    3208:	fd 4f       	sbci	r31, 0xFD	; 253
    320a:	10 82       	st	Z, r1
    320c:	31 96       	adiw	r30, 0x01	; 1
    320e:	10 82       	st	Z, r1
    3210:	31 96       	adiw	r30, 0x01	; 1
    3212:	21 e0       	ldi	r18, 0x01	; 1
    3214:	20 83       	st	Z, r18
    3216:	40 e0       	ldi	r20, 0x00	; 0
    3218:	50 e0       	ldi	r21, 0x00	; 0
    321a:	13 c0       	rjmp	.+38     	; 0x3242 <spi_buffer_init+0x3e>
    321c:	fa 01       	movw	r30, r20
    321e:	ee 0f       	add	r30, r30
    3220:	ff 1f       	adc	r31, r31
    3222:	9a 01       	movw	r18, r20
    3224:	22 0f       	add	r18, r18
    3226:	33 1f       	adc	r19, r19
    3228:	22 0f       	add	r18, r18
    322a:	33 1f       	adc	r19, r19
    322c:	22 0f       	add	r18, r18
    322e:	33 1f       	adc	r19, r19
    3230:	e2 0f       	add	r30, r18
    3232:	f3 1f       	adc	r31, r19
    3234:	e8 0f       	add	r30, r24
    3236:	f9 1f       	adc	r31, r25
    3238:	12 82       	std	Z+2, r1	; 0x02
    323a:	13 82       	std	Z+3, r1	; 0x03
    323c:	14 82       	std	Z+4, r1	; 0x04
    323e:	4f 5f       	subi	r20, 0xFF	; 255
    3240:	5f 4f       	sbci	r21, 0xFF	; 255
    3242:	40 34       	cpi	r20, 0x40	; 64
    3244:	51 05       	cpc	r21, r1
    3246:	54 f3       	brlt	.-44     	; 0x321c <spi_buffer_init+0x18>
    3248:	80 e0       	ldi	r24, 0x00	; 0
    324a:	90 e0       	ldi	r25, 0x00	; 0
    324c:	05 c0       	rjmp	.+10     	; 0x3258 <spi_buffer_init+0x54>
    324e:	fb 01       	movw	r30, r22
    3250:	e8 0f       	add	r30, r24
    3252:	f9 1f       	adc	r31, r25
    3254:	10 82       	st	Z, r1
    3256:	01 96       	adiw	r24, 0x01	; 1
    3258:	80 34       	cpi	r24, 0x40	; 64
    325a:	91 05       	cpc	r25, r1
    325c:	c4 f3       	brlt	.-16     	; 0x324e <spi_buffer_init+0x4a>
    325e:	fb 01       	movw	r30, r22
    3260:	ef 5b       	subi	r30, 0xBF	; 191
    3262:	ff 4f       	sbci	r31, 0xFF	; 255
    3264:	10 82       	st	Z, r1
    3266:	31 96       	adiw	r30, 0x01	; 1
    3268:	10 82       	st	Z, r1
    326a:	32 97       	sbiw	r30, 0x02	; 2
    326c:	10 82       	st	Z, r1
    326e:	08 95       	ret

00003270 <spi_create_task>:
    3270:	2f 92       	push	r2
    3272:	3f 92       	push	r3
    3274:	4f 92       	push	r4
    3276:	5f 92       	push	r5
    3278:	6f 92       	push	r6
    327a:	7f 92       	push	r7
    327c:	8f 92       	push	r8
    327e:	9f 92       	push	r9
    3280:	af 92       	push	r10
    3282:	bf 92       	push	r11
    3284:	cf 92       	push	r12
    3286:	df 92       	push	r13
    3288:	ef 92       	push	r14
    328a:	0f 93       	push	r16
    328c:	1f 93       	push	r17
    328e:	cf 93       	push	r28
    3290:	df 93       	push	r29
    3292:	cd b7       	in	r28, 0x3d	; 61
    3294:	de b7       	in	r29, 0x3e	; 62
    3296:	ca 58       	subi	r28, 0x8A	; 138
    3298:	d2 40       	sbci	r29, 0x02	; 2
    329a:	0f b6       	in	r0, 0x3f	; 63
    329c:	f8 94       	cli
    329e:	de bf       	out	0x3e, r29	; 62
    32a0:	0f be       	out	0x3f, r0	; 63
    32a2:	cd bf       	out	0x3d, r28	; 61
    32a4:	21 31       	cpi	r18, 0x11	; 17
    32a6:	08 f0       	brcs	.+2      	; 0x32aa <spi_create_task+0x3a>
    32a8:	ff c0       	rjmp	.+510    	; 0x34a8 <spi_create_task+0x238>
    32aa:	16 01       	movw	r2, r12
    32ac:	12 2f       	mov	r17, r18
    32ae:	5a 01       	movw	r10, r20
    32b0:	4b 01       	movw	r8, r22
    32b2:	6c 01       	movw	r12, r24
    32b4:	42 2e       	mov	r4, r18
    32b6:	51 2c       	mov	r5, r1
    32b8:	c2 01       	movw	r24, r4
    32ba:	0e 94 95 21 	call	0x432a	; 0x432a <malloc>
    32be:	3c 01       	movw	r6, r24
    32c0:	9a 83       	std	Y+2, r25	; 0x02
    32c2:	89 83       	std	Y+1, r24	; 0x01
    32c4:	1b 82       	std	Y+3, r1	; 0x03
    32c6:	1c 83       	std	Y+4, r17	; 0x04
    32c8:	0d 83       	std	Y+5, r16	; 0x05
    32ca:	ee 82       	std	Y+6, r14	; 0x06
    32cc:	98 86       	std	Y+8, r9	; 0x08
    32ce:	8f 82       	std	Y+7, r8	; 0x07
    32d0:	3a 86       	std	Y+10, r3	; 0x0a
    32d2:	29 86       	std	Y+9, r2	; 0x09
    32d4:	00 97       	sbiw	r24, 0x00	; 0
    32d6:	09 f4       	brne	.+2      	; 0x32da <spi_create_task+0x6a>
    32d8:	e9 c0       	rjmp	.+466    	; 0x34ac <spi_create_task+0x23c>
    32da:	a2 01       	movw	r20, r4
    32dc:	60 e0       	ldi	r22, 0x00	; 0
    32de:	70 e0       	ldi	r23, 0x00	; 0
    32e0:	0e 94 25 23 	call	0x464a	; 0x464a <memset>
    32e4:	80 e0       	ldi	r24, 0x00	; 0
    32e6:	90 e0       	ldi	r25, 0x00	; 0
    32e8:	09 c0       	rjmp	.+18     	; 0x32fc <spi_create_task+0x8c>
    32ea:	f3 01       	movw	r30, r6
    32ec:	e8 0f       	add	r30, r24
    32ee:	f9 1f       	adc	r31, r25
    32f0:	d5 01       	movw	r26, r10
    32f2:	a8 0f       	add	r26, r24
    32f4:	b9 1f       	adc	r27, r25
    32f6:	2c 91       	ld	r18, X
    32f8:	20 83       	st	Z, r18
    32fa:	01 96       	adiw	r24, 0x01	; 1
    32fc:	21 2f       	mov	r18, r17
    32fe:	30 e0       	ldi	r19, 0x00	; 0
    3300:	82 17       	cp	r24, r18
    3302:	93 07       	cpc	r25, r19
    3304:	94 f3       	brlt	.-28     	; 0x32ea <spi_create_task+0x7a>
    3306:	f6 01       	movw	r30, r12
    3308:	e0 58       	subi	r30, 0x80	; 128
    330a:	fd 4f       	sbci	r31, 0xFD	; 253
    330c:	70 81       	ld	r23, Z
    330e:	31 96       	adiw	r30, 0x01	; 1
    3310:	80 81       	ld	r24, Z
    3312:	18 2f       	mov	r17, r24
    3314:	1f 73       	andi	r17, 0x3F	; 63
    3316:	81 50       	subi	r24, 0x01	; 1
    3318:	8f 73       	andi	r24, 0x3F	; 63
    331a:	71 17       	cp	r23, r17
    331c:	09 f4       	brne	.+2      	; 0x3320 <spi_create_task+0xb0>
    331e:	95 c0       	rjmp	.+298    	; 0x344a <spi_create_task+0x1da>
    3320:	90 e0       	ldi	r25, 0x00	; 0
    3322:	fc 01       	movw	r30, r24
    3324:	ee 0f       	add	r30, r30
    3326:	ff 1f       	adc	r31, r31
    3328:	88 0f       	add	r24, r24
    332a:	99 1f       	adc	r25, r25
    332c:	88 0f       	add	r24, r24
    332e:	99 1f       	adc	r25, r25
    3330:	88 0f       	add	r24, r24
    3332:	99 1f       	adc	r25, r25
    3334:	e8 0f       	add	r30, r24
    3336:	f9 1f       	adc	r31, r25
    3338:	ec 0d       	add	r30, r12
    333a:	fd 1d       	adc	r31, r13
    333c:	84 81       	ldd	r24, Z+4	; 0x04
    333e:	80 17       	cp	r24, r16
    3340:	08 f4       	brcc	.+2      	; 0x3344 <spi_create_task+0xd4>
    3342:	7f c0       	rjmp	.+254    	; 0x3442 <spi_create_task+0x1d2>
    3344:	82 c0       	rjmp	.+260    	; 0x344a <spi_create_task+0x1da>
    3346:	46 2f       	mov	r20, r22
    3348:	50 e0       	ldi	r21, 0x00	; 0
    334a:	fa 01       	movw	r30, r20
    334c:	ee 0f       	add	r30, r30
    334e:	ff 1f       	adc	r31, r31
    3350:	ca 01       	movw	r24, r20
    3352:	88 0f       	add	r24, r24
    3354:	99 1f       	adc	r25, r25
    3356:	88 0f       	add	r24, r24
    3358:	99 1f       	adc	r25, r25
    335a:	88 0f       	add	r24, r24
    335c:	99 1f       	adc	r25, r25
    335e:	e8 0f       	add	r30, r24
    3360:	f9 1f       	adc	r31, r25
    3362:	ec 0d       	add	r30, r12
    3364:	fd 1d       	adc	r31, r13
    3366:	84 81       	ldd	r24, Z+4	; 0x04
    3368:	80 17       	cp	r24, r16
    336a:	08 f0       	brcs	.+2      	; 0x336e <spi_create_task+0xfe>
    336c:	67 c0       	rjmp	.+206    	; 0x343c <spi_create_task+0x1cc>
    336e:	1d c0       	rjmp	.+58     	; 0x33aa <spi_create_task+0x13a>
    3370:	f9 01       	movw	r30, r18
    3372:	ee 0f       	add	r30, r30
    3374:	ff 1f       	adc	r31, r31
    3376:	c9 01       	movw	r24, r18
    3378:	88 0f       	add	r24, r24
    337a:	99 1f       	adc	r25, r25
    337c:	88 0f       	add	r24, r24
    337e:	99 1f       	adc	r25, r25
    3380:	88 0f       	add	r24, r24
    3382:	99 1f       	adc	r25, r25
    3384:	e8 0f       	add	r30, r24
    3386:	f9 1f       	adc	r31, r25
    3388:	a1 e0       	ldi	r26, 0x01	; 1
    338a:	b0 e0       	ldi	r27, 0x00	; 0
    338c:	ac 0f       	add	r26, r28
    338e:	bd 1f       	adc	r27, r29
    3390:	ae 0f       	add	r26, r30
    3392:	bf 1f       	adc	r27, r31
    3394:	1a 96       	adiw	r26, 0x0a	; 10
    3396:	ec 0d       	add	r30, r12
    3398:	fd 1d       	adc	r31, r13
    339a:	8a e0       	ldi	r24, 0x0A	; 10
    339c:	01 90       	ld	r0, Z+
    339e:	0d 92       	st	X+, r0
    33a0:	8a 95       	dec	r24
    33a2:	e1 f7       	brne	.-8      	; 0x339c <spi_create_task+0x12c>
    33a4:	2f 5f       	subi	r18, 0xFF	; 255
    33a6:	3f 4f       	sbci	r19, 0xFF	; 255
    33a8:	02 c0       	rjmp	.+4      	; 0x33ae <spi_create_task+0x13e>
    33aa:	20 e0       	ldi	r18, 0x00	; 0
    33ac:	30 e0       	ldi	r19, 0x00	; 0
    33ae:	20 34       	cpi	r18, 0x40	; 64
    33b0:	31 05       	cpc	r19, r1
    33b2:	f4 f2       	brlt	.-68     	; 0x3370 <spi_create_task+0x100>
    33b4:	ca 01       	movw	r24, r20
    33b6:	2b c0       	rjmp	.+86     	; 0x340e <spi_create_task+0x19e>
    33b8:	9c 01       	movw	r18, r24
    33ba:	2f 5f       	subi	r18, 0xFF	; 255
    33bc:	3f 4f       	sbci	r19, 0xFF	; 255
    33be:	d9 01       	movw	r26, r18
    33c0:	aa 0f       	add	r26, r26
    33c2:	bb 1f       	adc	r27, r27
    33c4:	22 0f       	add	r18, r18
    33c6:	33 1f       	adc	r19, r19
    33c8:	22 0f       	add	r18, r18
    33ca:	33 1f       	adc	r19, r19
    33cc:	22 0f       	add	r18, r18
    33ce:	33 1f       	adc	r19, r19
    33d0:	a2 0f       	add	r26, r18
    33d2:	b3 1f       	adc	r27, r19
    33d4:	ac 0d       	add	r26, r12
    33d6:	bd 1d       	adc	r27, r13
    33d8:	fc 01       	movw	r30, r24
    33da:	ee 0f       	add	r30, r30
    33dc:	ff 1f       	adc	r31, r31
    33de:	88 0f       	add	r24, r24
    33e0:	99 1f       	adc	r25, r25
    33e2:	88 0f       	add	r24, r24
    33e4:	99 1f       	adc	r25, r25
    33e6:	88 0f       	add	r24, r24
    33e8:	99 1f       	adc	r25, r25
    33ea:	e8 0f       	add	r30, r24
    33ec:	f9 1f       	adc	r31, r25
    33ee:	81 e0       	ldi	r24, 0x01	; 1
    33f0:	90 e0       	ldi	r25, 0x00	; 0
    33f2:	8c 0f       	add	r24, r28
    33f4:	9d 1f       	adc	r25, r29
    33f6:	e8 0f       	add	r30, r24
    33f8:	f9 1f       	adc	r31, r25
    33fa:	3a 96       	adiw	r30, 0x0a	; 10
    33fc:	8a e0       	ldi	r24, 0x0A	; 10
    33fe:	01 90       	ld	r0, Z+
    3400:	0d 92       	st	X+, r0
    3402:	8a 95       	dec	r24
    3404:	e1 f7       	brne	.-8      	; 0x33fe <spi_create_task+0x18e>
    3406:	6f 5f       	subi	r22, 0xFF	; 255
    3408:	86 2f       	mov	r24, r22
    340a:	8f 73       	andi	r24, 0x3F	; 63
    340c:	90 e0       	ldi	r25, 0x00	; 0
    340e:	61 13       	cpse	r22, r17
    3410:	d3 cf       	rjmp	.-90     	; 0x33b8 <spi_create_task+0x148>
    3412:	da 01       	movw	r26, r20
    3414:	aa 0f       	add	r26, r26
    3416:	bb 1f       	adc	r27, r27
    3418:	44 0f       	add	r20, r20
    341a:	55 1f       	adc	r21, r21
    341c:	44 0f       	add	r20, r20
    341e:	55 1f       	adc	r21, r21
    3420:	44 0f       	add	r20, r20
    3422:	55 1f       	adc	r21, r21
    3424:	a4 0f       	add	r26, r20
    3426:	b5 1f       	adc	r27, r21
    3428:	ac 0d       	add	r26, r12
    342a:	bd 1d       	adc	r27, r13
    342c:	8a e0       	ldi	r24, 0x0A	; 10
    342e:	fe 01       	movw	r30, r28
    3430:	31 96       	adiw	r30, 0x01	; 1
    3432:	01 90       	ld	r0, Z+
    3434:	0d 92       	st	X+, r0
    3436:	8a 95       	dec	r24
    3438:	e1 f7       	brne	.-8      	; 0x3432 <spi_create_task+0x1c2>
    343a:	1d c0       	rjmp	.+58     	; 0x3476 <spi_create_task+0x206>
    343c:	6f 5f       	subi	r22, 0xFF	; 255
    343e:	6f 73       	andi	r22, 0x3F	; 63
    3440:	01 c0       	rjmp	.+2      	; 0x3444 <spi_create_task+0x1d4>
    3442:	67 2f       	mov	r22, r23
    3444:	61 13       	cpse	r22, r17
    3446:	7f cf       	rjmp	.-258    	; 0x3346 <spi_create_task+0xd6>
    3448:	16 c0       	rjmp	.+44     	; 0x3476 <spi_create_task+0x206>
    344a:	81 2f       	mov	r24, r17
    344c:	90 e0       	ldi	r25, 0x00	; 0
    344e:	dc 01       	movw	r26, r24
    3450:	aa 0f       	add	r26, r26
    3452:	bb 1f       	adc	r27, r27
    3454:	88 0f       	add	r24, r24
    3456:	99 1f       	adc	r25, r25
    3458:	88 0f       	add	r24, r24
    345a:	99 1f       	adc	r25, r25
    345c:	88 0f       	add	r24, r24
    345e:	99 1f       	adc	r25, r25
    3460:	a8 0f       	add	r26, r24
    3462:	b9 1f       	adc	r27, r25
    3464:	ac 0d       	add	r26, r12
    3466:	bd 1d       	adc	r27, r13
    3468:	8a e0       	ldi	r24, 0x0A	; 10
    346a:	fe 01       	movw	r30, r28
    346c:	31 96       	adiw	r30, 0x01	; 1
    346e:	01 90       	ld	r0, Z+
    3470:	0d 92       	st	X+, r0
    3472:	8a 95       	dec	r24
    3474:	e1 f7       	brne	.-8      	; 0x346e <spi_create_task+0x1fe>
    3476:	1f 5f       	subi	r17, 0xFF	; 255
    3478:	1f 73       	andi	r17, 0x3F	; 63
    347a:	f6 01       	movw	r30, r12
    347c:	ef 57       	subi	r30, 0x7F	; 127
    347e:	fd 4f       	sbci	r31, 0xFD	; 253
    3480:	10 83       	st	Z, r17
    3482:	31 96       	adiw	r30, 0x01	; 1
    3484:	10 82       	st	Z, r1
    3486:	71 17       	cp	r23, r17
    3488:	99 f0       	breq	.+38     	; 0x34b0 <spi_create_task+0x240>
    348a:	81 2f       	mov	r24, r17
    348c:	90 e0       	ldi	r25, 0x00	; 0
    348e:	87 1b       	sub	r24, r23
    3490:	91 09       	sbc	r25, r1
    3492:	9c 01       	movw	r18, r24
    3494:	22 f4       	brpl	.+8      	; 0x349e <spi_create_task+0x22e>
    3496:	22 27       	eor	r18, r18
    3498:	33 27       	eor	r19, r19
    349a:	28 1b       	sub	r18, r24
    349c:	39 0b       	sbc	r19, r25
    349e:	20 34       	cpi	r18, 0x40	; 64
    34a0:	31 05       	cpc	r19, r1
    34a2:	44 f0       	brlt	.+16     	; 0x34b4 <spi_create_task+0x244>
    34a4:	81 e0       	ldi	r24, 0x01	; 1
    34a6:	07 c0       	rjmp	.+14     	; 0x34b6 <spi_create_task+0x246>
    34a8:	83 e0       	ldi	r24, 0x03	; 3
    34aa:	05 c0       	rjmp	.+10     	; 0x34b6 <spi_create_task+0x246>
    34ac:	88 e0       	ldi	r24, 0x08	; 8
    34ae:	03 c0       	rjmp	.+6      	; 0x34b6 <spi_create_task+0x246>
    34b0:	82 e0       	ldi	r24, 0x02	; 2
    34b2:	01 c0       	rjmp	.+2      	; 0x34b6 <spi_create_task+0x246>
    34b4:	80 e0       	ldi	r24, 0x00	; 0
    34b6:	c6 57       	subi	r28, 0x76	; 118
    34b8:	dd 4f       	sbci	r29, 0xFD	; 253
    34ba:	0f b6       	in	r0, 0x3f	; 63
    34bc:	f8 94       	cli
    34be:	de bf       	out	0x3e, r29	; 62
    34c0:	0f be       	out	0x3f, r0	; 63
    34c2:	cd bf       	out	0x3d, r28	; 61
    34c4:	df 91       	pop	r29
    34c6:	cf 91       	pop	r28
    34c8:	1f 91       	pop	r17
    34ca:	0f 91       	pop	r16
    34cc:	ef 90       	pop	r14
    34ce:	df 90       	pop	r13
    34d0:	cf 90       	pop	r12
    34d2:	bf 90       	pop	r11
    34d4:	af 90       	pop	r10
    34d6:	9f 90       	pop	r9
    34d8:	8f 90       	pop	r8
    34da:	7f 90       	pop	r7
    34dc:	6f 90       	pop	r6
    34de:	5f 90       	pop	r5
    34e0:	4f 90       	pop	r4
    34e2:	3f 90       	pop	r3
    34e4:	2f 90       	pop	r2
    34e6:	08 95       	ret

000034e8 <delay>:
    34e8:	0a c0       	rjmp	.+20     	; 0x34fe <delay+0x16>
    34ea:	4f e7       	ldi	r20, 0x7F	; 127
    34ec:	84 e8       	ldi	r24, 0x84	; 132
    34ee:	9e e1       	ldi	r25, 0x1E	; 30
    34f0:	41 50       	subi	r20, 0x01	; 1
    34f2:	80 40       	sbci	r24, 0x00	; 0
    34f4:	90 40       	sbci	r25, 0x00	; 0
    34f6:	e1 f7       	brne	.-8      	; 0x34f0 <delay+0x8>
    34f8:	00 c0       	rjmp	.+0      	; 0x34fa <delay+0x12>
    34fa:	00 00       	nop
    34fc:	c9 01       	movw	r24, r18
    34fe:	9c 01       	movw	r18, r24
    3500:	21 50       	subi	r18, 0x01	; 1
    3502:	31 09       	sbc	r19, r1
    3504:	89 2b       	or	r24, r25
    3506:	89 f7       	brne	.-30     	; 0x34ea <delay+0x2>
    3508:	08 95       	ret

0000350a <error_led>:
    350a:	ff 92       	push	r15
    350c:	0f 93       	push	r16
    350e:	1f 93       	push	r17
    3510:	cf 93       	push	r28
    3512:	df 93       	push	r29
    3514:	c8 2f       	mov	r28, r24
    3516:	d0 e0       	ldi	r29, 0x00	; 0
    3518:	1f 92       	push	r1
    351a:	8f 93       	push	r24
    351c:	fe 01       	movw	r30, r28
    351e:	ee 0f       	add	r30, r30
    3520:	ff 1f       	adc	r31, r31
    3522:	ee 0f       	add	r30, r30
    3524:	ff 1f       	adc	r31, r31
    3526:	ee 0f       	add	r30, r30
    3528:	ff 1f       	adc	r31, r31
    352a:	ec 0f       	add	r30, r28
    352c:	fd 1f       	adc	r31, r29
    352e:	e3 59       	subi	r30, 0x93	; 147
    3530:	fe 4f       	sbci	r31, 0xFE	; 254
    3532:	80 85       	ldd	r24, Z+8	; 0x08
    3534:	8f 93       	push	r24
    3536:	87 81       	ldd	r24, Z+7	; 0x07
    3538:	8f 93       	push	r24
    353a:	81 e4       	ldi	r24, 0x41	; 65
    353c:	94 e0       	ldi	r25, 0x04	; 4
    353e:	9f 93       	push	r25
    3540:	8f 93       	push	r24
    3542:	8e e4       	ldi	r24, 0x4E	; 78
    3544:	94 e0       	ldi	r25, 0x04	; 4
    3546:	9f 93       	push	r25
    3548:	8f 93       	push	r24
    354a:	ce d4       	rcall	.+2460   	; 0x3ee8 <uart_put>
    354c:	8d b7       	in	r24, 0x3d	; 61
    354e:	9e b7       	in	r25, 0x3e	; 62
    3550:	08 96       	adiw	r24, 0x08	; 8
    3552:	0f b6       	in	r0, 0x3f	; 63
    3554:	f8 94       	cli
    3556:	9e bf       	out	0x3e, r25	; 62
    3558:	0f be       	out	0x3f, r0	; 63
    355a:	8d bf       	out	0x3d, r24	; 61
    355c:	00 e0       	ldi	r16, 0x00	; 0
    355e:	10 e0       	ldi	r17, 0x00	; 0
    3560:	28 c0       	rjmp	.+80     	; 0x35b2 <error_led+0xa8>
    3562:	87 e0       	ldi	r24, 0x07	; 7
    3564:	0e 94 8e 04 	call	0x91c	; 0x91c <led_toggle>
    3568:	ef 2d       	mov	r30, r15
    356a:	f0 e0       	ldi	r31, 0x00	; 0
    356c:	ee 0f       	add	r30, r30
    356e:	ff 1f       	adc	r31, r31
    3570:	ce 01       	movw	r24, r28
    3572:	88 0f       	add	r24, r24
    3574:	99 1f       	adc	r25, r25
    3576:	88 0f       	add	r24, r24
    3578:	99 1f       	adc	r25, r25
    357a:	88 0f       	add	r24, r24
    357c:	99 1f       	adc	r25, r25
    357e:	8c 0f       	add	r24, r28
    3580:	9d 1f       	adc	r25, r29
    3582:	e8 0f       	add	r30, r24
    3584:	f9 1f       	adc	r31, r25
    3586:	e3 59       	subi	r30, 0x93	; 147
    3588:	fe 4f       	sbci	r31, 0xFE	; 254
    358a:	81 81       	ldd	r24, Z+1	; 0x01
    358c:	92 81       	ldd	r25, Z+2	; 0x02
    358e:	ac df       	rcall	.-168    	; 0x34e8 <delay>
    3590:	87 e0       	ldi	r24, 0x07	; 7
    3592:	0e 94 8e 04 	call	0x91c	; 0x91c <led_toggle>
    3596:	81 e0       	ldi	r24, 0x01	; 1
    3598:	90 e0       	ldi	r25, 0x00	; 0
    359a:	a6 df       	rcall	.-180    	; 0x34e8 <delay>
    359c:	f3 94       	inc	r15
    359e:	01 c0       	rjmp	.+2      	; 0x35a2 <error_led+0x98>
    35a0:	f1 2c       	mov	r15, r1
    35a2:	92 e0       	ldi	r25, 0x02	; 2
    35a4:	9f 15       	cp	r25, r15
    35a6:	e8 f6       	brcc	.-70     	; 0x3562 <error_led+0x58>
    35a8:	84 e0       	ldi	r24, 0x04	; 4
    35aa:	90 e0       	ldi	r25, 0x00	; 0
    35ac:	9d df       	rcall	.-198    	; 0x34e8 <delay>
    35ae:	0f 5f       	subi	r16, 0xFF	; 255
    35b0:	1f 4f       	sbci	r17, 0xFF	; 255
    35b2:	02 30       	cpi	r16, 0x02	; 2
    35b4:	11 05       	cpc	r17, r1
    35b6:	a4 f3       	brlt	.-24     	; 0x35a0 <error_led+0x96>
    35b8:	df 91       	pop	r29
    35ba:	cf 91       	pop	r28
    35bc:	1f 91       	pop	r17
    35be:	0f 91       	pop	r16
    35c0:	ff 90       	pop	r15
    35c2:	08 95       	ret

000035c4 <error_handler>:
    35c4:	48 2f       	mov	r20, r24
    35c6:	50 e0       	ldi	r21, 0x00	; 0
    35c8:	48 30       	cpi	r20, 0x08	; 8
    35ca:	51 05       	cpc	r21, r1
    35cc:	c8 f4       	brcc	.+50     	; 0x3600 <error_handler+0x3c>
    35ce:	fa 01       	movw	r30, r20
    35d0:	e1 56       	subi	r30, 0x61	; 97
    35d2:	ff 4f       	sbci	r31, 0xFF	; 255
    35d4:	88 c6       	rjmp	.+3344   	; 0x42e6 <__tablejump2__>
    35d6:	99 df       	rcall	.-206    	; 0x350a <error_led>
    35d8:	81 e0       	ldi	r24, 0x01	; 1
    35da:	08 95       	ret
    35dc:	96 df       	rcall	.-212    	; 0x350a <error_led>
    35de:	82 e0       	ldi	r24, 0x02	; 2
    35e0:	08 95       	ret
    35e2:	93 df       	rcall	.-218    	; 0x350a <error_led>
    35e4:	83 e0       	ldi	r24, 0x03	; 3
    35e6:	08 95       	ret
    35e8:	90 df       	rcall	.-224    	; 0x350a <error_led>
    35ea:	84 e0       	ldi	r24, 0x04	; 4
    35ec:	08 95       	ret
    35ee:	8d df       	rcall	.-230    	; 0x350a <error_led>
    35f0:	85 e0       	ldi	r24, 0x05	; 5
    35f2:	08 95       	ret
    35f4:	8a df       	rcall	.-236    	; 0x350a <error_led>
    35f6:	86 e0       	ldi	r24, 0x06	; 6
    35f8:	08 95       	ret
    35fa:	87 df       	rcall	.-242    	; 0x350a <error_led>
    35fc:	87 e0       	ldi	r24, 0x07	; 7
    35fe:	08 95       	ret
    3600:	84 df       	rcall	.-248    	; 0x350a <error_led>
    3602:	88 e0       	ldi	r24, 0x08	; 8
    3604:	08 95       	ret
    3606:	80 e0       	ldi	r24, 0x00	; 0
    3608:	08 95       	ret

0000360a <get_byte>:
    360a:	cf 93       	push	r28
    360c:	df 93       	push	r29
    360e:	ec 01       	movw	r28, r24
    3610:	80 91 41 05 	lds	r24, 0x0541	; 0x800541 <SPI_STATE>
    3614:	88 23       	and	r24, r24
    3616:	e1 f3       	breq	.-8      	; 0x3610 <get_byte+0x6>
    3618:	90 e0       	ldi	r25, 0x00	; 0
    361a:	14 c0       	rjmp	.+40     	; 0x3644 <get_byte+0x3a>
    361c:	a3 e8       	ldi	r26, 0x83	; 131
    361e:	b5 e0       	ldi	r27, 0x05	; 5
    3620:	ec 91       	ld	r30, X
    3622:	81 e0       	ldi	r24, 0x01	; 1
    3624:	8e 0f       	add	r24, r30
    3626:	8c 93       	st	X, r24
    3628:	ef 73       	andi	r30, 0x3F	; 63
    362a:	a8 81       	ld	r26, Y
    362c:	b9 81       	ldd	r27, Y+1	; 0x01
    362e:	0d 90       	ld	r0, X+
    3630:	bc 91       	ld	r27, X
    3632:	a0 2d       	mov	r26, r0
    3634:	a9 0f       	add	r26, r25
    3636:	b1 1d       	adc	r27, r1
    3638:	f0 e0       	ldi	r31, 0x00	; 0
    363a:	ee 5b       	subi	r30, 0xBE	; 190
    363c:	fa 4f       	sbci	r31, 0xFA	; 250
    363e:	80 81       	ld	r24, Z
    3640:	8c 93       	st	X, r24
    3642:	9f 5f       	subi	r25, 0xFF	; 255
    3644:	8a 81       	ldd	r24, Y+2	; 0x02
    3646:	98 17       	cp	r25, r24
    3648:	48 f3       	brcs	.-46     	; 0x361c <get_byte+0x12>
    364a:	df 91       	pop	r29
    364c:	cf 91       	pop	r28
    364e:	08 95       	ret

00003650 <spi_enable_slave>:
    3650:	fc 01       	movw	r30, r24
    3652:	91 81       	ldd	r25, Z+1	; 0x01
    3654:	97 30       	cpi	r25, 0x07	; 7
    3656:	21 f0       	breq	.+8      	; 0x3660 <spi_enable_slave+0x10>
    3658:	95 30       	cpi	r25, 0x05	; 5
    365a:	11 f0       	breq	.+4      	; 0x3660 <spi_enable_slave+0x10>
    365c:	96 30       	cpi	r25, 0x06	; 6
    365e:	19 f4       	brne	.+6      	; 0x3666 <spi_enable_slave+0x16>
    3660:	84 e0       	ldi	r24, 0x04	; 4
    3662:	b0 cf       	rjmp	.-160    	; 0x35c4 <error_handler>
    3664:	08 95       	ret
    3666:	80 91 3f 05 	lds	r24, 0x053F	; 0x80053f <slave+0x1>
    366a:	98 17       	cp	r25, r24
    366c:	41 f1       	breq	.+80     	; 0x36be <spi_enable_slave+0x6e>
    366e:	80 81       	ld	r24, Z
    3670:	91 81       	ldd	r25, Z+1	; 0x01
    3672:	a2 81       	ldd	r26, Z+2	; 0x02
    3674:	80 93 3e 05 	sts	0x053E, r24	; 0x80053e <slave>
    3678:	90 93 3f 05 	sts	0x053F, r25	; 0x80053f <slave+0x1>
    367c:	a0 93 40 05 	sts	0x0540, r26	; 0x800540 <slave+0x2>
    3680:	44 b1       	in	r20, 0x04	; 4
    3682:	ee e3       	ldi	r30, 0x3E	; 62
    3684:	f5 e0       	ldi	r31, 0x05	; 5
    3686:	81 e0       	ldi	r24, 0x01	; 1
    3688:	90 e0       	ldi	r25, 0x00	; 0
    368a:	9c 01       	movw	r18, r24
    368c:	02 80       	ldd	r0, Z+2	; 0x02
    368e:	02 c0       	rjmp	.+4      	; 0x3694 <spi_enable_slave+0x44>
    3690:	22 0f       	add	r18, r18
    3692:	33 1f       	adc	r19, r19
    3694:	0a 94       	dec	r0
    3696:	e2 f7       	brpl	.-8      	; 0x3690 <spi_enable_slave+0x40>
    3698:	24 2b       	or	r18, r20
    369a:	24 b9       	out	0x04, r18	; 4
    369c:	25 b1       	in	r18, 0x05	; 5
    369e:	01 80       	ldd	r0, Z+1	; 0x01
    36a0:	02 c0       	rjmp	.+4      	; 0x36a6 <spi_enable_slave+0x56>
    36a2:	88 0f       	add	r24, r24
    36a4:	99 1f       	adc	r25, r25
    36a6:	0a 94       	dec	r0
    36a8:	e2 f7       	brpl	.-8      	; 0x36a2 <spi_enable_slave+0x52>
    36aa:	82 2b       	or	r24, r18
    36ac:	85 b9       	out	0x05, r24	; 5
    36ae:	0c b4       	in	r0, 0x2c	; 44
    36b0:	04 fc       	sbrc	r0, 4
    36b2:	07 c0       	rjmp	.+14     	; 0x36c2 <spi_enable_slave+0x72>
    36b4:	8c b5       	in	r24, 0x2c	; 44
    36b6:	80 61       	ori	r24, 0x10	; 16
    36b8:	8c bd       	out	0x2c, r24	; 44
    36ba:	80 e0       	ldi	r24, 0x00	; 0
    36bc:	08 95       	ret
    36be:	80 e0       	ldi	r24, 0x00	; 0
    36c0:	08 95       	ret
    36c2:	80 e0       	ldi	r24, 0x00	; 0
    36c4:	08 95       	ret

000036c6 <spi_write>:
    36c6:	cf 92       	push	r12
    36c8:	df 92       	push	r13
    36ca:	ef 92       	push	r14
    36cc:	ff 92       	push	r15
    36ce:	0f 93       	push	r16
    36d0:	cf 93       	push	r28
    36d2:	df 93       	push	r29
    36d4:	e7 01       	movw	r28, r14
    36d6:	67 01       	movw	r12, r14
    36d8:	e0 2e       	mov	r14, r16
    36da:	02 2f       	mov	r16, r18
    36dc:	24 2f       	mov	r18, r20
    36de:	ab 01       	movw	r20, r22
    36e0:	bc 01       	movw	r22, r24
    36e2:	85 e8       	ldi	r24, 0x85	; 133
    36e4:	95 e0       	ldi	r25, 0x05	; 5
    36e6:	c4 dd       	rcall	.-1144   	; 0x3270 <spi_create_task>
    36e8:	88 23       	and	r24, r24
    36ea:	11 f0       	breq	.+4      	; 0x36f0 <spi_write+0x2a>
    36ec:	6b df       	rcall	.-298    	; 0x35c4 <error_handler>
    36ee:	53 c0       	rjmp	.+166    	; 0x3796 <spi_write+0xd0>
    36f0:	80 91 41 05 	lds	r24, 0x0541	; 0x800541 <SPI_STATE>
    36f4:	81 30       	cpi	r24, 0x01	; 1
    36f6:	09 f0       	breq	.+2      	; 0x36fa <spi_write+0x34>
    36f8:	4b c0       	rjmp	.+150    	; 0x3790 <spi_write+0xca>
    36fa:	10 92 41 05 	sts	0x0541, r1	; 0x800541 <SPI_STATE>
    36fe:	d0 93 3b 05 	sts	0x053B, r29	; 0x80053b <task_finished_callback+0x1>
    3702:	c0 93 3a 05 	sts	0x053A, r28	; 0x80053a <task_finished_callback>
    3706:	80 91 05 08 	lds	r24, 0x0805	; 0x800805 <tx_buffer+0x280>
    370a:	90 e0       	ldi	r25, 0x00	; 0
    370c:	fc 01       	movw	r30, r24
    370e:	ee 0f       	add	r30, r30
    3710:	ff 1f       	adc	r31, r31
    3712:	88 0f       	add	r24, r24
    3714:	99 1f       	adc	r25, r25
    3716:	88 0f       	add	r24, r24
    3718:	99 1f       	adc	r25, r25
    371a:	88 0f       	add	r24, r24
    371c:	99 1f       	adc	r25, r25
    371e:	e8 0f       	add	r30, r24
    3720:	f9 1f       	adc	r31, r25
    3722:	eb 57       	subi	r30, 0x7B	; 123
    3724:	fa 4f       	sbci	r31, 0xFA	; 250
    3726:	86 81       	ldd	r24, Z+6	; 0x06
    3728:	97 81       	ldd	r25, Z+7	; 0x07
    372a:	92 df       	rcall	.-220    	; 0x3650 <spi_enable_slave>
    372c:	88 23       	and	r24, r24
    372e:	11 f0       	breq	.+4      	; 0x3734 <spi_write+0x6e>
    3730:	49 df       	rcall	.-366    	; 0x35c4 <error_handler>
    3732:	31 c0       	rjmp	.+98     	; 0x3796 <spi_write+0xd0>
    3734:	25 b1       	in	r18, 0x05	; 5
    3736:	81 e0       	ldi	r24, 0x01	; 1
    3738:	90 e0       	ldi	r25, 0x00	; 0
    373a:	00 90 3f 05 	lds	r0, 0x053F	; 0x80053f <slave+0x1>
    373e:	02 c0       	rjmp	.+4      	; 0x3744 <spi_write+0x7e>
    3740:	88 0f       	add	r24, r24
    3742:	99 1f       	adc	r25, r25
    3744:	0a 94       	dec	r0
    3746:	e2 f7       	brpl	.-8      	; 0x3740 <spi_write+0x7a>
    3748:	80 95       	com	r24
    374a:	82 23       	and	r24, r18
    374c:	85 b9       	out	0x05, r24	; 5
    374e:	80 91 05 08 	lds	r24, 0x0805	; 0x800805 <tx_buffer+0x280>
    3752:	90 e0       	ldi	r25, 0x00	; 0
    3754:	fc 01       	movw	r30, r24
    3756:	ee 0f       	add	r30, r30
    3758:	ff 1f       	adc	r31, r31
    375a:	88 0f       	add	r24, r24
    375c:	99 1f       	adc	r25, r25
    375e:	88 0f       	add	r24, r24
    3760:	99 1f       	adc	r25, r25
    3762:	88 0f       	add	r24, r24
    3764:	99 1f       	adc	r25, r25
    3766:	e8 0f       	add	r30, r24
    3768:	f9 1f       	adc	r31, r25
    376a:	eb 57       	subi	r30, 0x7B	; 123
    376c:	fa 4f       	sbci	r31, 0xFA	; 250
    376e:	80 81       	ld	r24, Z
    3770:	91 81       	ldd	r25, Z+1	; 0x01
    3772:	22 81       	ldd	r18, Z+2	; 0x02
    3774:	31 e0       	ldi	r19, 0x01	; 1
    3776:	32 0f       	add	r19, r18
    3778:	32 83       	std	Z+2, r19	; 0x02
    377a:	fc 01       	movw	r30, r24
    377c:	e2 0f       	add	r30, r18
    377e:	f1 1d       	adc	r31, r1
    3780:	80 81       	ld	r24, Z
    3782:	8e bd       	out	0x2e, r24	; 46
    3784:	0d b4       	in	r0, 0x2d	; 45
    3786:	06 fe       	sbrs	r0, 6
    3788:	05 c0       	rjmp	.+10     	; 0x3794 <spi_write+0xce>
    378a:	85 e0       	ldi	r24, 0x05	; 5
    378c:	1b df       	rcall	.-458    	; 0x35c4 <error_handler>
    378e:	03 c0       	rjmp	.+6      	; 0x3796 <spi_write+0xd0>
    3790:	80 e0       	ldi	r24, 0x00	; 0
    3792:	01 c0       	rjmp	.+2      	; 0x3796 <spi_write+0xd0>
    3794:	80 e0       	ldi	r24, 0x00	; 0
    3796:	df 91       	pop	r29
    3798:	cf 91       	pop	r28
    379a:	0f 91       	pop	r16
    379c:	ff 90       	pop	r15
    379e:	ef 90       	pop	r14
    37a0:	df 90       	pop	r13
    37a2:	cf 90       	pop	r12
    37a4:	08 95       	ret

000037a6 <spi_read>:
    37a6:	6f 92       	push	r6
    37a8:	7f 92       	push	r7
    37aa:	8f 92       	push	r8
    37ac:	9f 92       	push	r9
    37ae:	af 92       	push	r10
    37b0:	bf 92       	push	r11
    37b2:	cf 92       	push	r12
    37b4:	df 92       	push	r13
    37b6:	ef 92       	push	r14
    37b8:	ff 92       	push	r15
    37ba:	0f 93       	push	r16
    37bc:	1f 93       	push	r17
    37be:	cf 93       	push	r28
    37c0:	df 93       	push	r29
    37c2:	00 d0       	rcall	.+0      	; 0x37c4 <spi_read+0x1e>
    37c4:	cd b7       	in	r28, 0x3d	; 61
    37c6:	de b7       	in	r29, 0x3e	; 62
    37c8:	3c 01       	movw	r6, r24
    37ca:	7a 83       	std	Y+2, r23	; 0x02
    37cc:	69 83       	std	Y+1, r22	; 0x01
    37ce:	14 2f       	mov	r17, r20
    37d0:	d2 2e       	mov	r13, r18
    37d2:	47 01       	movw	r8, r14
    37d4:	e0 91 3c 05 	lds	r30, 0x053C	; 0x80053c <data_packet>
    37d8:	f0 91 3d 05 	lds	r31, 0x053D	; 0x80053d <data_packet+0x1>
    37dc:	ce 01       	movw	r24, r28
    37de:	01 96       	adiw	r24, 0x01	; 1
    37e0:	91 83       	std	Z+1, r25	; 0x01
    37e2:	80 83       	st	Z, r24
    37e4:	42 83       	std	Z+2, r20	; 0x02
    37e6:	e4 2e       	mov	r14, r20
    37e8:	f1 2c       	mov	r15, r1
    37ea:	c7 01       	movw	r24, r14
    37ec:	9e d5       	rcall	.+2876   	; 0x432a <malloc>
    37ee:	5c 01       	movw	r10, r24
    37f0:	00 97       	sbiw	r24, 0x00	; 0
    37f2:	09 f4       	brne	.+2      	; 0x37f6 <spi_read+0x50>
    37f4:	70 c0       	rjmp	.+224    	; 0x38d6 <spi_read+0x130>
    37f6:	6d 2d       	mov	r22, r13
    37f8:	70 e0       	ldi	r23, 0x00	; 0
    37fa:	a7 01       	movw	r20, r14
    37fc:	26 d7       	rcall	.+3660   	; 0x464a <memset>
    37fe:	64 01       	movw	r12, r8
    3800:	68 94       	set
    3802:	ee 24       	eor	r14, r14
    3804:	e1 f8       	bld	r14, 1
    3806:	21 2f       	mov	r18, r17
    3808:	a5 01       	movw	r20, r10
    380a:	b3 01       	movw	r22, r6
    380c:	85 e8       	ldi	r24, 0x85	; 133
    380e:	95 e0       	ldi	r25, 0x05	; 5
    3810:	2f dd       	rcall	.-1442   	; 0x3270 <spi_create_task>
    3812:	18 2f       	mov	r17, r24
    3814:	88 23       	and	r24, r24
    3816:	29 f0       	breq	.+10     	; 0x3822 <spi_read+0x7c>
    3818:	c5 01       	movw	r24, r10
    381a:	1f d6       	rcall	.+3134   	; 0x445a <free>
    381c:	81 2f       	mov	r24, r17
    381e:	d2 de       	rcall	.-604    	; 0x35c4 <error_handler>
    3820:	5b c0       	rjmp	.+182    	; 0x38d8 <spi_read+0x132>
    3822:	80 91 41 05 	lds	r24, 0x0541	; 0x800541 <SPI_STATE>
    3826:	81 30       	cpi	r24, 0x01	; 1
    3828:	09 f0       	breq	.+2      	; 0x382c <spi_read+0x86>
    382a:	51 c0       	rjmp	.+162    	; 0x38ce <spi_read+0x128>
    382c:	10 92 41 05 	sts	0x0541, r1	; 0x800541 <SPI_STATE>
    3830:	90 92 3b 05 	sts	0x053B, r9	; 0x80053b <task_finished_callback+0x1>
    3834:	80 92 3a 05 	sts	0x053A, r8	; 0x80053a <task_finished_callback>
    3838:	80 91 05 08 	lds	r24, 0x0805	; 0x800805 <tx_buffer+0x280>
    383c:	90 e0       	ldi	r25, 0x00	; 0
    383e:	fc 01       	movw	r30, r24
    3840:	ee 0f       	add	r30, r30
    3842:	ff 1f       	adc	r31, r31
    3844:	88 0f       	add	r24, r24
    3846:	99 1f       	adc	r25, r25
    3848:	88 0f       	add	r24, r24
    384a:	99 1f       	adc	r25, r25
    384c:	88 0f       	add	r24, r24
    384e:	99 1f       	adc	r25, r25
    3850:	e8 0f       	add	r30, r24
    3852:	f9 1f       	adc	r31, r25
    3854:	eb 57       	subi	r30, 0x7B	; 123
    3856:	fa 4f       	sbci	r31, 0xFA	; 250
    3858:	86 81       	ldd	r24, Z+6	; 0x06
    385a:	97 81       	ldd	r25, Z+7	; 0x07
    385c:	f9 de       	rcall	.-526    	; 0x3650 <spi_enable_slave>
    385e:	18 2f       	mov	r17, r24
    3860:	88 23       	and	r24, r24
    3862:	29 f0       	breq	.+10     	; 0x386e <spi_read+0xc8>
    3864:	c5 01       	movw	r24, r10
    3866:	f9 d5       	rcall	.+3058   	; 0x445a <free>
    3868:	81 2f       	mov	r24, r17
    386a:	ac de       	rcall	.-680    	; 0x35c4 <error_handler>
    386c:	35 c0       	rjmp	.+106    	; 0x38d8 <spi_read+0x132>
    386e:	25 b1       	in	r18, 0x05	; 5
    3870:	81 e0       	ldi	r24, 0x01	; 1
    3872:	90 e0       	ldi	r25, 0x00	; 0
    3874:	00 90 3f 05 	lds	r0, 0x053F	; 0x80053f <slave+0x1>
    3878:	02 c0       	rjmp	.+4      	; 0x387e <spi_read+0xd8>
    387a:	88 0f       	add	r24, r24
    387c:	99 1f       	adc	r25, r25
    387e:	0a 94       	dec	r0
    3880:	e2 f7       	brpl	.-8      	; 0x387a <spi_read+0xd4>
    3882:	80 95       	com	r24
    3884:	82 23       	and	r24, r18
    3886:	85 b9       	out	0x05, r24	; 5
    3888:	80 91 05 08 	lds	r24, 0x0805	; 0x800805 <tx_buffer+0x280>
    388c:	90 e0       	ldi	r25, 0x00	; 0
    388e:	fc 01       	movw	r30, r24
    3890:	ee 0f       	add	r30, r30
    3892:	ff 1f       	adc	r31, r31
    3894:	88 0f       	add	r24, r24
    3896:	99 1f       	adc	r25, r25
    3898:	88 0f       	add	r24, r24
    389a:	99 1f       	adc	r25, r25
    389c:	88 0f       	add	r24, r24
    389e:	99 1f       	adc	r25, r25
    38a0:	e8 0f       	add	r30, r24
    38a2:	f9 1f       	adc	r31, r25
    38a4:	eb 57       	subi	r30, 0x7B	; 123
    38a6:	fa 4f       	sbci	r31, 0xFA	; 250
    38a8:	80 81       	ld	r24, Z
    38aa:	91 81       	ldd	r25, Z+1	; 0x01
    38ac:	22 81       	ldd	r18, Z+2	; 0x02
    38ae:	31 e0       	ldi	r19, 0x01	; 1
    38b0:	32 0f       	add	r19, r18
    38b2:	32 83       	std	Z+2, r19	; 0x02
    38b4:	fc 01       	movw	r30, r24
    38b6:	e2 0f       	add	r30, r18
    38b8:	f1 1d       	adc	r31, r1
    38ba:	80 81       	ld	r24, Z
    38bc:	8e bd       	out	0x2e, r24	; 46
    38be:	0d b4       	in	r0, 0x2d	; 45
    38c0:	06 fe       	sbrs	r0, 6
    38c2:	05 c0       	rjmp	.+10     	; 0x38ce <spi_read+0x128>
    38c4:	c5 01       	movw	r24, r10
    38c6:	c9 d5       	rcall	.+2962   	; 0x445a <free>
    38c8:	85 e0       	ldi	r24, 0x05	; 5
    38ca:	7c de       	rcall	.-776    	; 0x35c4 <error_handler>
    38cc:	05 c0       	rjmp	.+10     	; 0x38d8 <spi_read+0x132>
    38ce:	c5 01       	movw	r24, r10
    38d0:	c4 d5       	rcall	.+2952   	; 0x445a <free>
    38d2:	80 e0       	ldi	r24, 0x00	; 0
    38d4:	01 c0       	rjmp	.+2      	; 0x38d8 <spi_read+0x132>
    38d6:	88 e0       	ldi	r24, 0x08	; 8
    38d8:	0f 90       	pop	r0
    38da:	0f 90       	pop	r0
    38dc:	df 91       	pop	r29
    38de:	cf 91       	pop	r28
    38e0:	1f 91       	pop	r17
    38e2:	0f 91       	pop	r16
    38e4:	ff 90       	pop	r15
    38e6:	ef 90       	pop	r14
    38e8:	df 90       	pop	r13
    38ea:	cf 90       	pop	r12
    38ec:	bf 90       	pop	r11
    38ee:	af 90       	pop	r10
    38f0:	9f 90       	pop	r9
    38f2:	8f 90       	pop	r8
    38f4:	7f 90       	pop	r7
    38f6:	6f 90       	pop	r6
    38f8:	08 95       	ret

000038fa <spi_create_slave>:
    38fa:	96 2f       	mov	r25, r22
    38fc:	55 b1       	in	r21, 0x05	; 5
    38fe:	21 e0       	ldi	r18, 0x01	; 1
    3900:	30 e0       	ldi	r19, 0x00	; 0
    3902:	b9 01       	movw	r22, r18
    3904:	09 2e       	mov	r0, r25
    3906:	02 c0       	rjmp	.+4      	; 0x390c <spi_create_slave+0x12>
    3908:	66 0f       	add	r22, r22
    390a:	77 1f       	adc	r23, r23
    390c:	0a 94       	dec	r0
    390e:	e2 f7       	brpl	.-8      	; 0x3908 <spi_create_slave+0xe>
    3910:	65 2b       	or	r22, r21
    3912:	65 b9       	out	0x05, r22	; 5
    3914:	54 b1       	in	r21, 0x04	; 4
    3916:	04 2e       	mov	r0, r20
    3918:	02 c0       	rjmp	.+4      	; 0x391e <spi_create_slave+0x24>
    391a:	22 0f       	add	r18, r18
    391c:	33 1f       	adc	r19, r19
    391e:	0a 94       	dec	r0
    3920:	e2 f7       	brpl	.-8      	; 0x391a <spi_create_slave+0x20>
    3922:	25 2b       	or	r18, r21
    3924:	24 b9       	out	0x04, r18	; 4
    3926:	68 2f       	mov	r22, r24
    3928:	79 2f       	mov	r23, r25
    392a:	84 2f       	mov	r24, r20
    392c:	08 95       	ret

0000392e <spi_init>:
    392e:	0f 93       	push	r16
    3930:	1f 93       	push	r17
    3932:	cf 93       	push	r28
    3934:	df 93       	push	r29
    3936:	18 2f       	mov	r17, r24
    3938:	d6 2f       	mov	r29, r22
    393a:	c4 2f       	mov	r28, r20
    393c:	02 2f       	mov	r16, r18
    393e:	80 ea       	ldi	r24, 0xA0	; 160
    3940:	84 b9       	out	0x04, r24	; 4
    3942:	84 b1       	in	r24, 0x04	; 4
    3944:	8f 7b       	andi	r24, 0xBF	; 191
    3946:	84 b9       	out	0x04, r24	; 4
    3948:	44 e0       	ldi	r20, 0x04	; 4
    394a:	64 e0       	ldi	r22, 0x04	; 4
    394c:	84 e0       	ldi	r24, 0x04	; 4
    394e:	d5 df       	rcall	.-86     	; 0x38fa <spi_create_slave>
    3950:	60 93 3e 05 	sts	0x053E, r22	; 0x80053e <slave>
    3954:	70 93 3f 05 	sts	0x053F, r23	; 0x80053f <slave+0x1>
    3958:	80 93 40 05 	sts	0x0540, r24	; 0x800540 <slave+0x2>
    395c:	20 e2       	ldi	r18, 0x20	; 32
    395e:	12 9f       	mul	r17, r18
    3960:	c0 01       	movw	r24, r0
    3962:	11 24       	eor	r1, r1
    3964:	6d 2f       	mov	r22, r29
    3966:	70 e0       	ldi	r23, 0x00	; 0
    3968:	66 0f       	add	r22, r22
    396a:	77 1f       	adc	r23, r23
    396c:	66 0f       	add	r22, r22
    396e:	77 1f       	adc	r23, r23
    3970:	66 0f       	add	r22, r22
    3972:	77 1f       	adc	r23, r23
    3974:	4c 2f       	mov	r20, r28
    3976:	50 e0       	ldi	r21, 0x00	; 0
    3978:	44 0f       	add	r20, r20
    397a:	55 1f       	adc	r21, r21
    397c:	44 0f       	add	r20, r20
    397e:	55 1f       	adc	r21, r21
    3980:	80 6d       	ori	r24, 0xD0	; 208
    3982:	68 2b       	or	r22, r24
    3984:	46 2b       	or	r20, r22
    3986:	4c bd       	out	0x2c, r20	; 44
    3988:	8c ef       	ldi	r24, 0xFC	; 252
    398a:	80 0f       	add	r24, r16
    398c:	84 30       	cpi	r24, 0x04	; 4
    398e:	38 f4       	brcc	.+14     	; 0x399e <spi_init+0x70>
    3990:	9c b5       	in	r25, 0x2c	; 44
    3992:	89 2b       	or	r24, r25
    3994:	8c bd       	out	0x2c, r24	; 44
    3996:	8d b5       	in	r24, 0x2d	; 45
    3998:	81 60       	ori	r24, 0x01	; 1
    399a:	8d bd       	out	0x2d, r24	; 45
    399c:	06 c0       	rjmp	.+12     	; 0x39aa <spi_init+0x7c>
    399e:	8c b5       	in	r24, 0x2c	; 44
    39a0:	08 2b       	or	r16, r24
    39a2:	0c bd       	out	0x2c, r16	; 44
    39a4:	8d b5       	in	r24, 0x2d	; 45
    39a6:	8e 7f       	andi	r24, 0xFE	; 254
    39a8:	8d bd       	out	0x2d, r24	; 45
    39aa:	81 e0       	ldi	r24, 0x01	; 1
    39ac:	80 93 41 05 	sts	0x0541, r24	; 0x800541 <SPI_STATE>
    39b0:	62 e4       	ldi	r22, 0x42	; 66
    39b2:	75 e0       	ldi	r23, 0x05	; 5
    39b4:	85 e8       	ldi	r24, 0x85	; 133
    39b6:	95 e0       	ldi	r25, 0x05	; 5
    39b8:	25 dc       	rcall	.-1974   	; 0x3204 <spi_buffer_init>
    39ba:	83 e0       	ldi	r24, 0x03	; 3
    39bc:	90 e0       	ldi	r25, 0x00	; 0
    39be:	b5 d4       	rcall	.+2410   	; 0x432a <malloc>
    39c0:	90 93 3d 05 	sts	0x053D, r25	; 0x80053d <data_packet+0x1>
    39c4:	80 93 3c 05 	sts	0x053C, r24	; 0x80053c <data_packet>
    39c8:	89 2b       	or	r24, r25
    39ca:	41 f0       	breq	.+16     	; 0x39dc <spi_init+0xae>
    39cc:	85 e0       	ldi	r24, 0x05	; 5
    39ce:	9b e1       	ldi	r25, 0x1B	; 27
    39d0:	90 93 39 05 	sts	0x0539, r25	; 0x800539 <data_callback+0x1>
    39d4:	80 93 38 05 	sts	0x0538, r24	; 0x800538 <data_callback>
    39d8:	80 e0       	ldi	r24, 0x00	; 0
    39da:	01 c0       	rjmp	.+2      	; 0x39de <spi_init+0xb0>
    39dc:	88 e0       	ldi	r24, 0x08	; 8
    39de:	df 91       	pop	r29
    39e0:	cf 91       	pop	r28
    39e2:	1f 91       	pop	r17
    39e4:	0f 91       	pop	r16
    39e6:	08 95       	ret

000039e8 <__vector_19>:
    39e8:	1f 92       	push	r1
    39ea:	0f 92       	push	r0
    39ec:	0f b6       	in	r0, 0x3f	; 63
    39ee:	0f 92       	push	r0
    39f0:	11 24       	eor	r1, r1
    39f2:	0b b6       	in	r0, 0x3b	; 59
    39f4:	0f 92       	push	r0
    39f6:	2f 93       	push	r18
    39f8:	3f 93       	push	r19
    39fa:	4f 93       	push	r20
    39fc:	5f 93       	push	r21
    39fe:	6f 93       	push	r22
    3a00:	7f 93       	push	r23
    3a02:	8f 93       	push	r24
    3a04:	9f 93       	push	r25
    3a06:	af 93       	push	r26
    3a08:	bf 93       	push	r27
    3a0a:	cf 93       	push	r28
    3a0c:	df 93       	push	r29
    3a0e:	ef 93       	push	r30
    3a10:	ff 93       	push	r31
    3a12:	30 91 84 05 	lds	r19, 0x0584	; 0x800584 <rx_buffer+0x42>
    3a16:	23 2f       	mov	r18, r19
    3a18:	2f 73       	andi	r18, 0x3F	; 63
    3a1a:	20 93 93 09 	sts	0x0993, r18	; 0x800993 <tmptail>
    3a1e:	80 91 05 08 	lds	r24, 0x0805	; 0x800805 <tx_buffer+0x280>
    3a22:	90 e0       	ldi	r25, 0x00	; 0
    3a24:	fc 01       	movw	r30, r24
    3a26:	ee 0f       	add	r30, r30
    3a28:	ff 1f       	adc	r31, r31
    3a2a:	88 0f       	add	r24, r24
    3a2c:	99 1f       	adc	r25, r25
    3a2e:	88 0f       	add	r24, r24
    3a30:	99 1f       	adc	r25, r25
    3a32:	88 0f       	add	r24, r24
    3a34:	99 1f       	adc	r25, r25
    3a36:	e8 0f       	add	r30, r24
    3a38:	f9 1f       	adc	r31, r25
    3a3a:	eb 57       	subi	r30, 0x7B	; 123
    3a3c:	fa 4f       	sbci	r31, 0xFA	; 250
    3a3e:	85 81       	ldd	r24, Z+5	; 0x05
    3a40:	82 30       	cpi	r24, 0x02	; 2
    3a42:	51 f4       	brne	.+20     	; 0x3a58 <__vector_19+0x70>
    3a44:	e2 2f       	mov	r30, r18
    3a46:	f0 e0       	ldi	r31, 0x00	; 0
    3a48:	8e b5       	in	r24, 0x2e	; 46
    3a4a:	ee 5b       	subi	r30, 0xBE	; 190
    3a4c:	fa 4f       	sbci	r31, 0xFA	; 250
    3a4e:	80 83       	st	Z, r24
    3a50:	3f 5f       	subi	r19, 0xFF	; 255
    3a52:	30 93 84 05 	sts	0x0584, r19	; 0x800584 <rx_buffer+0x42>
    3a56:	03 c0       	rjmp	.+6      	; 0x3a5e <__vector_19+0x76>
    3a58:	8e b5       	in	r24, 0x2e	; 46
    3a5a:	80 93 92 09 	sts	0x0992, r24	; 0x800992 <dump>
    3a5e:	80 91 05 08 	lds	r24, 0x0805	; 0x800805 <tx_buffer+0x280>
    3a62:	90 91 06 08 	lds	r25, 0x0806	; 0x800806 <tx_buffer+0x281>
    3a66:	89 17       	cp	r24, r25
    3a68:	09 f4       	brne	.+2      	; 0x3a6c <__vector_19+0x84>
    3a6a:	10 c1       	rjmp	.+544    	; 0x3c8c <__vector_19+0x2a4>
    3a6c:	90 e0       	ldi	r25, 0x00	; 0
    3a6e:	fc 01       	movw	r30, r24
    3a70:	ee 0f       	add	r30, r30
    3a72:	ff 1f       	adc	r31, r31
    3a74:	88 0f       	add	r24, r24
    3a76:	99 1f       	adc	r25, r25
    3a78:	88 0f       	add	r24, r24
    3a7a:	99 1f       	adc	r25, r25
    3a7c:	88 0f       	add	r24, r24
    3a7e:	99 1f       	adc	r25, r25
    3a80:	e8 0f       	add	r30, r24
    3a82:	f9 1f       	adc	r31, r25
    3a84:	eb 57       	subi	r30, 0x7B	; 123
    3a86:	fa 4f       	sbci	r31, 0xFA	; 250
    3a88:	86 81       	ldd	r24, Z+6	; 0x06
    3a8a:	97 81       	ldd	r25, Z+7	; 0x07
    3a8c:	90 93 96 09 	sts	0x0996, r25	; 0x800996 <tmpslave+0x1>
    3a90:	80 93 95 09 	sts	0x0995, r24	; 0x800995 <tmpslave>
    3a94:	fc 01       	movw	r30, r24
    3a96:	31 81       	ldd	r19, Z+1	; 0x01
    3a98:	20 91 3f 05 	lds	r18, 0x053F	; 0x80053f <slave+0x1>
    3a9c:	32 13       	cpse	r19, r18
    3a9e:	d8 dd       	rcall	.-1104   	; 0x3650 <spi_enable_slave>
    3aa0:	80 91 05 08 	lds	r24, 0x0805	; 0x800805 <tx_buffer+0x280>
    3aa4:	90 e0       	ldi	r25, 0x00	; 0
    3aa6:	fc 01       	movw	r30, r24
    3aa8:	ee 0f       	add	r30, r30
    3aaa:	ff 1f       	adc	r31, r31
    3aac:	9c 01       	movw	r18, r24
    3aae:	22 0f       	add	r18, r18
    3ab0:	33 1f       	adc	r19, r19
    3ab2:	22 0f       	add	r18, r18
    3ab4:	33 1f       	adc	r19, r19
    3ab6:	22 0f       	add	r18, r18
    3ab8:	33 1f       	adc	r19, r19
    3aba:	e2 0f       	add	r30, r18
    3abc:	f3 1f       	adc	r31, r19
    3abe:	eb 57       	subi	r30, 0x7B	; 123
    3ac0:	fa 4f       	sbci	r31, 0xFA	; 250
    3ac2:	32 81       	ldd	r19, Z+2	; 0x02
    3ac4:	23 81       	ldd	r18, Z+3	; 0x03
    3ac6:	32 17       	cp	r19, r18
    3ac8:	49 f1       	breq	.+82     	; 0x3b1c <__vector_19+0x134>
    3aca:	25 b1       	in	r18, 0x05	; 5
    3acc:	81 e0       	ldi	r24, 0x01	; 1
    3ace:	90 e0       	ldi	r25, 0x00	; 0
    3ad0:	00 90 3f 05 	lds	r0, 0x053F	; 0x80053f <slave+0x1>
    3ad4:	02 c0       	rjmp	.+4      	; 0x3ada <__vector_19+0xf2>
    3ad6:	88 0f       	add	r24, r24
    3ad8:	99 1f       	adc	r25, r25
    3ada:	0a 94       	dec	r0
    3adc:	e2 f7       	brpl	.-8      	; 0x3ad6 <__vector_19+0xee>
    3ade:	80 95       	com	r24
    3ae0:	82 23       	and	r24, r18
    3ae2:	85 b9       	out	0x05, r24	; 5
    3ae4:	80 91 05 08 	lds	r24, 0x0805	; 0x800805 <tx_buffer+0x280>
    3ae8:	90 e0       	ldi	r25, 0x00	; 0
    3aea:	fc 01       	movw	r30, r24
    3aec:	ee 0f       	add	r30, r30
    3aee:	ff 1f       	adc	r31, r31
    3af0:	88 0f       	add	r24, r24
    3af2:	99 1f       	adc	r25, r25
    3af4:	88 0f       	add	r24, r24
    3af6:	99 1f       	adc	r25, r25
    3af8:	88 0f       	add	r24, r24
    3afa:	99 1f       	adc	r25, r25
    3afc:	e8 0f       	add	r30, r24
    3afe:	f9 1f       	adc	r31, r25
    3b00:	eb 57       	subi	r30, 0x7B	; 123
    3b02:	fa 4f       	sbci	r31, 0xFA	; 250
    3b04:	80 81       	ld	r24, Z
    3b06:	91 81       	ldd	r25, Z+1	; 0x01
    3b08:	22 81       	ldd	r18, Z+2	; 0x02
    3b0a:	31 e0       	ldi	r19, 0x01	; 1
    3b0c:	32 0f       	add	r19, r18
    3b0e:	32 83       	std	Z+2, r19	; 0x02
    3b10:	fc 01       	movw	r30, r24
    3b12:	e2 0f       	add	r30, r18
    3b14:	f1 1d       	adc	r31, r1
    3b16:	80 81       	ld	r24, Z
    3b18:	8e bd       	out	0x2e, r24	; 46
    3b1a:	c9 c0       	rjmp	.+402    	; 0x3cae <__vector_19+0x2c6>
    3b1c:	21 e0       	ldi	r18, 0x01	; 1
    3b1e:	20 93 41 05 	sts	0x0541, r18	; 0x800541 <SPI_STATE>
    3b22:	fc 01       	movw	r30, r24
    3b24:	ee 0f       	add	r30, r30
    3b26:	ff 1f       	adc	r31, r31
    3b28:	88 0f       	add	r24, r24
    3b2a:	99 1f       	adc	r25, r25
    3b2c:	88 0f       	add	r24, r24
    3b2e:	99 1f       	adc	r25, r25
    3b30:	88 0f       	add	r24, r24
    3b32:	99 1f       	adc	r25, r25
    3b34:	e8 0f       	add	r30, r24
    3b36:	f9 1f       	adc	r31, r25
    3b38:	eb 57       	subi	r30, 0x7B	; 123
    3b3a:	fa 4f       	sbci	r31, 0xFA	; 250
    3b3c:	85 81       	ldd	r24, Z+5	; 0x05
    3b3e:	82 30       	cpi	r24, 0x02	; 2
    3b40:	79 f4       	brne	.+30     	; 0x3b60 <__vector_19+0x178>
    3b42:	80 91 38 05 	lds	r24, 0x0538	; 0x800538 <data_callback>
    3b46:	90 91 39 05 	lds	r25, 0x0539	; 0x800539 <data_callback+0x1>
    3b4a:	89 2b       	or	r24, r25
    3b4c:	49 f0       	breq	.+18     	; 0x3b60 <__vector_19+0x178>
    3b4e:	e0 91 38 05 	lds	r30, 0x0538	; 0x800538 <data_callback>
    3b52:	f0 91 39 05 	lds	r31, 0x0539	; 0x800539 <data_callback+0x1>
    3b56:	80 91 3c 05 	lds	r24, 0x053C	; 0x80053c <data_packet>
    3b5a:	90 91 3d 05 	lds	r25, 0x053D	; 0x80053d <data_packet+0x1>
    3b5e:	09 95       	icall
    3b60:	80 91 3a 05 	lds	r24, 0x053A	; 0x80053a <task_finished_callback>
    3b64:	90 91 3b 05 	lds	r25, 0x053B	; 0x80053b <task_finished_callback+0x1>
    3b68:	89 2b       	or	r24, r25
    3b6a:	49 f0       	breq	.+18     	; 0x3b7e <__vector_19+0x196>
    3b6c:	e0 91 3a 05 	lds	r30, 0x053A	; 0x80053a <task_finished_callback>
    3b70:	f0 91 3b 05 	lds	r31, 0x053B	; 0x80053b <task_finished_callback+0x1>
    3b74:	09 95       	icall
    3b76:	10 92 3b 05 	sts	0x053B, r1	; 0x80053b <task_finished_callback+0x1>
    3b7a:	10 92 3a 05 	sts	0x053A, r1	; 0x80053a <task_finished_callback>
    3b7e:	c5 e0       	ldi	r28, 0x05	; 5
    3b80:	d8 e0       	ldi	r29, 0x08	; 8
    3b82:	88 81       	ld	r24, Y
    3b84:	90 e0       	ldi	r25, 0x00	; 0
    3b86:	fc 01       	movw	r30, r24
    3b88:	ee 0f       	add	r30, r30
    3b8a:	ff 1f       	adc	r31, r31
    3b8c:	88 0f       	add	r24, r24
    3b8e:	99 1f       	adc	r25, r25
    3b90:	88 0f       	add	r24, r24
    3b92:	99 1f       	adc	r25, r25
    3b94:	88 0f       	add	r24, r24
    3b96:	99 1f       	adc	r25, r25
    3b98:	e8 0f       	add	r30, r24
    3b9a:	f9 1f       	adc	r31, r25
    3b9c:	eb 57       	subi	r30, 0x7B	; 123
    3b9e:	fa 4f       	sbci	r31, 0xFA	; 250
    3ba0:	80 81       	ld	r24, Z
    3ba2:	91 81       	ldd	r25, Z+1	; 0x01
    3ba4:	5a d4       	rcall	.+2228   	; 0x445a <free>
    3ba6:	98 81       	ld	r25, Y
    3ba8:	89 2f       	mov	r24, r25
    3baa:	8f 73       	andi	r24, 0x3F	; 63
    3bac:	80 93 91 09 	sts	0x0991, r24	; 0x800991 <tmp>
    3bb0:	9f 5f       	subi	r25, 0xFF	; 255
    3bb2:	9f 73       	andi	r25, 0x3F	; 63
    3bb4:	90 93 94 09 	sts	0x0994, r25	; 0x800994 <tmphead>
    3bb8:	98 83       	st	Y, r25
    3bba:	90 e0       	ldi	r25, 0x00	; 0
    3bbc:	fc 01       	movw	r30, r24
    3bbe:	ee 0f       	add	r30, r30
    3bc0:	ff 1f       	adc	r31, r31
    3bc2:	88 0f       	add	r24, r24
    3bc4:	99 1f       	adc	r25, r25
    3bc6:	88 0f       	add	r24, r24
    3bc8:	99 1f       	adc	r25, r25
    3bca:	88 0f       	add	r24, r24
    3bcc:	99 1f       	adc	r25, r25
    3bce:	e8 0f       	add	r30, r24
    3bd0:	f9 1f       	adc	r31, r25
    3bd2:	eb 57       	subi	r30, 0x7B	; 123
    3bd4:	fa 4f       	sbci	r31, 0xFA	; 250
    3bd6:	85 81       	ldd	r24, Z+5	; 0x05
    3bd8:	81 30       	cpi	r24, 0x01	; 1
    3bda:	61 f0       	breq	.+24     	; 0x3bf4 <__vector_19+0x20c>
    3bdc:	25 b1       	in	r18, 0x05	; 5
    3bde:	81 e0       	ldi	r24, 0x01	; 1
    3be0:	90 e0       	ldi	r25, 0x00	; 0
    3be2:	00 90 3f 05 	lds	r0, 0x053F	; 0x80053f <slave+0x1>
    3be6:	02 c0       	rjmp	.+4      	; 0x3bec <__vector_19+0x204>
    3be8:	88 0f       	add	r24, r24
    3bea:	99 1f       	adc	r25, r25
    3bec:	0a 94       	dec	r0
    3bee:	e2 f7       	brpl	.-8      	; 0x3be8 <__vector_19+0x200>
    3bf0:	82 2b       	or	r24, r18
    3bf2:	85 b9       	out	0x05, r24	; 5
    3bf4:	80 91 05 08 	lds	r24, 0x0805	; 0x800805 <tx_buffer+0x280>
    3bf8:	90 91 06 08 	lds	r25, 0x0806	; 0x800806 <tx_buffer+0x281>
    3bfc:	89 17       	cp	r24, r25
    3bfe:	09 f4       	brne	.+2      	; 0x3c02 <__vector_19+0x21a>
    3c00:	3f c0       	rjmp	.+126    	; 0x3c80 <__vector_19+0x298>
    3c02:	10 92 41 05 	sts	0x0541, r1	; 0x800541 <SPI_STATE>
    3c06:	90 e0       	ldi	r25, 0x00	; 0
    3c08:	fc 01       	movw	r30, r24
    3c0a:	ee 0f       	add	r30, r30
    3c0c:	ff 1f       	adc	r31, r31
    3c0e:	88 0f       	add	r24, r24
    3c10:	99 1f       	adc	r25, r25
    3c12:	88 0f       	add	r24, r24
    3c14:	99 1f       	adc	r25, r25
    3c16:	88 0f       	add	r24, r24
    3c18:	99 1f       	adc	r25, r25
    3c1a:	e8 0f       	add	r30, r24
    3c1c:	f9 1f       	adc	r31, r25
    3c1e:	eb 57       	subi	r30, 0x7B	; 123
    3c20:	fa 4f       	sbci	r31, 0xFA	; 250
    3c22:	80 85       	ldd	r24, Z+8	; 0x08
    3c24:	91 85       	ldd	r25, Z+9	; 0x09
    3c26:	90 93 3b 05 	sts	0x053B, r25	; 0x80053b <task_finished_callback+0x1>
    3c2a:	80 93 3a 05 	sts	0x053A, r24	; 0x80053a <task_finished_callback>
    3c2e:	25 b1       	in	r18, 0x05	; 5
    3c30:	81 e0       	ldi	r24, 0x01	; 1
    3c32:	90 e0       	ldi	r25, 0x00	; 0
    3c34:	00 90 3f 05 	lds	r0, 0x053F	; 0x80053f <slave+0x1>
    3c38:	02 c0       	rjmp	.+4      	; 0x3c3e <__vector_19+0x256>
    3c3a:	88 0f       	add	r24, r24
    3c3c:	99 1f       	adc	r25, r25
    3c3e:	0a 94       	dec	r0
    3c40:	e2 f7       	brpl	.-8      	; 0x3c3a <__vector_19+0x252>
    3c42:	80 95       	com	r24
    3c44:	82 23       	and	r24, r18
    3c46:	85 b9       	out	0x05, r24	; 5
    3c48:	80 91 05 08 	lds	r24, 0x0805	; 0x800805 <tx_buffer+0x280>
    3c4c:	90 e0       	ldi	r25, 0x00	; 0
    3c4e:	fc 01       	movw	r30, r24
    3c50:	ee 0f       	add	r30, r30
    3c52:	ff 1f       	adc	r31, r31
    3c54:	88 0f       	add	r24, r24
    3c56:	99 1f       	adc	r25, r25
    3c58:	88 0f       	add	r24, r24
    3c5a:	99 1f       	adc	r25, r25
    3c5c:	88 0f       	add	r24, r24
    3c5e:	99 1f       	adc	r25, r25
    3c60:	e8 0f       	add	r30, r24
    3c62:	f9 1f       	adc	r31, r25
    3c64:	eb 57       	subi	r30, 0x7B	; 123
    3c66:	fa 4f       	sbci	r31, 0xFA	; 250
    3c68:	80 81       	ld	r24, Z
    3c6a:	91 81       	ldd	r25, Z+1	; 0x01
    3c6c:	22 81       	ldd	r18, Z+2	; 0x02
    3c6e:	31 e0       	ldi	r19, 0x01	; 1
    3c70:	32 0f       	add	r19, r18
    3c72:	32 83       	std	Z+2, r19	; 0x02
    3c74:	fc 01       	movw	r30, r24
    3c76:	e2 0f       	add	r30, r18
    3c78:	f1 1d       	adc	r31, r1
    3c7a:	80 81       	ld	r24, Z
    3c7c:	8e bd       	out	0x2e, r24	; 46
    3c7e:	17 c0       	rjmp	.+46     	; 0x3cae <__vector_19+0x2c6>
    3c80:	81 e0       	ldi	r24, 0x01	; 1
    3c82:	80 93 41 05 	sts	0x0541, r24	; 0x800541 <SPI_STATE>
    3c86:	80 93 07 08 	sts	0x0807, r24	; 0x800807 <tx_buffer+0x282>
    3c8a:	11 c0       	rjmp	.+34     	; 0x3cae <__vector_19+0x2c6>
    3c8c:	25 b1       	in	r18, 0x05	; 5
    3c8e:	81 e0       	ldi	r24, 0x01	; 1
    3c90:	90 e0       	ldi	r25, 0x00	; 0
    3c92:	00 90 3f 05 	lds	r0, 0x053F	; 0x80053f <slave+0x1>
    3c96:	02 c0       	rjmp	.+4      	; 0x3c9c <__vector_19+0x2b4>
    3c98:	88 0f       	add	r24, r24
    3c9a:	99 1f       	adc	r25, r25
    3c9c:	0a 94       	dec	r0
    3c9e:	e2 f7       	brpl	.-8      	; 0x3c98 <__vector_19+0x2b0>
    3ca0:	82 2b       	or	r24, r18
    3ca2:	85 b9       	out	0x05, r24	; 5
    3ca4:	81 e0       	ldi	r24, 0x01	; 1
    3ca6:	80 93 41 05 	sts	0x0541, r24	; 0x800541 <SPI_STATE>
    3caa:	80 93 07 08 	sts	0x0807, r24	; 0x800807 <tx_buffer+0x282>
    3cae:	ff 91       	pop	r31
    3cb0:	ef 91       	pop	r30
    3cb2:	df 91       	pop	r29
    3cb4:	cf 91       	pop	r28
    3cb6:	bf 91       	pop	r27
    3cb8:	af 91       	pop	r26
    3cba:	9f 91       	pop	r25
    3cbc:	8f 91       	pop	r24
    3cbe:	7f 91       	pop	r23
    3cc0:	6f 91       	pop	r22
    3cc2:	5f 91       	pop	r21
    3cc4:	4f 91       	pop	r20
    3cc6:	3f 91       	pop	r19
    3cc8:	2f 91       	pop	r18
    3cca:	0f 90       	pop	r0
    3ccc:	0b be       	out	0x3b, r0	; 59
    3cce:	0f 90       	pop	r0
    3cd0:	0f be       	out	0x3f, r0	; 63
    3cd2:	0f 90       	pop	r0
    3cd4:	1f 90       	pop	r1
    3cd6:	18 95       	reti

00003cd8 <__vector_13>:
    3cd8:	1f 92       	push	r1
    3cda:	0f 92       	push	r0
    3cdc:	0f b6       	in	r0, 0x3f	; 63
    3cde:	0f 92       	push	r0
    3ce0:	11 24       	eor	r1, r1
    3ce2:	0b b6       	in	r0, 0x3b	; 59
    3ce4:	0f 92       	push	r0
    3ce6:	8f 93       	push	r24
    3ce8:	ef 93       	push	r30
    3cea:	ff 93       	push	r31
    3cec:	e0 91 70 09 	lds	r30, 0x0970	; 0x800970 <IRCompAFlag>
    3cf0:	f0 91 71 09 	lds	r31, 0x0971	; 0x800971 <IRCompAFlag+0x1>
    3cf4:	30 97       	sbiw	r30, 0x00	; 0
    3cf6:	11 f0       	breq	.+4      	; 0x3cfc <__vector_13+0x24>
    3cf8:	81 e0       	ldi	r24, 0x01	; 1
    3cfa:	80 83       	st	Z, r24
    3cfc:	ff 91       	pop	r31
    3cfe:	ef 91       	pop	r30
    3d00:	8f 91       	pop	r24
    3d02:	0f 90       	pop	r0
    3d04:	0b be       	out	0x3b, r0	; 59
    3d06:	0f 90       	pop	r0
    3d08:	0f be       	out	0x3f, r0	; 63
    3d0a:	0f 90       	pop	r0
    3d0c:	1f 90       	pop	r1
    3d0e:	18 95       	reti

00003d10 <__vector_14>:
    3d10:	1f 92       	push	r1
    3d12:	0f 92       	push	r0
    3d14:	0f b6       	in	r0, 0x3f	; 63
    3d16:	0f 92       	push	r0
    3d18:	11 24       	eor	r1, r1
    3d1a:	0b b6       	in	r0, 0x3b	; 59
    3d1c:	0f 92       	push	r0
    3d1e:	8f 93       	push	r24
    3d20:	ef 93       	push	r30
    3d22:	ff 93       	push	r31
    3d24:	e0 91 b8 08 	lds	r30, 0x08B8	; 0x8008b8 <IRCompBFlag>
    3d28:	f0 91 b9 08 	lds	r31, 0x08B9	; 0x8008b9 <IRCompBFlag+0x1>
    3d2c:	30 97       	sbiw	r30, 0x00	; 0
    3d2e:	11 f0       	breq	.+4      	; 0x3d34 <__vector_14+0x24>
    3d30:	81 e0       	ldi	r24, 0x01	; 1
    3d32:	80 83       	st	Z, r24
    3d34:	ff 91       	pop	r31
    3d36:	ef 91       	pop	r30
    3d38:	8f 91       	pop	r24
    3d3a:	0f 90       	pop	r0
    3d3c:	0b be       	out	0x3b, r0	; 59
    3d3e:	0f 90       	pop	r0
    3d40:	0f be       	out	0x3f, r0	; 63
    3d42:	0f 90       	pop	r0
    3d44:	1f 90       	pop	r1
    3d46:	18 95       	reti

00003d48 <timer_start>:
    3d48:	10 92 90 00 	sts	0x0090, r1	; 0x800090 <__TEXT_REGION_LENGTH__+0x7e0090>
    3d4c:	10 92 95 00 	sts	0x0095, r1	; 0x800095 <__TEXT_REGION_LENGTH__+0x7e0095>
    3d50:	10 92 94 00 	sts	0x0094, r1	; 0x800094 <__TEXT_REGION_LENGTH__+0x7e0094>
    3d54:	e5 e2       	ldi	r30, 0x25	; 37
    3d56:	f6 e2       	ldi	r31, 0x26	; 38
    3d58:	58 2f       	mov	r21, r24
    3d5a:	5e 9f       	mul	r21, r30
    3d5c:	c0 01       	movw	r24, r0
    3d5e:	5f 9f       	mul	r21, r31
    3d60:	90 0d       	add	r25, r0
    3d62:	11 24       	eor	r1, r1
    3d64:	90 93 99 00 	sts	0x0099, r25	; 0x800099 <__TEXT_REGION_LENGTH__+0x7e0099>
    3d68:	80 93 98 00 	sts	0x0098, r24	; 0x800098 <__TEXT_REGION_LENGTH__+0x7e0098>
    3d6c:	4e 9f       	mul	r20, r30
    3d6e:	c0 01       	movw	r24, r0
    3d70:	4f 9f       	mul	r20, r31
    3d72:	90 0d       	add	r25, r0
    3d74:	11 24       	eor	r1, r1
    3d76:	90 93 9b 00 	sts	0x009B, r25	; 0x80009b <__TEXT_REGION_LENGTH__+0x7e009b>
    3d7a:	80 93 9a 00 	sts	0x009A, r24	; 0x80009a <__TEXT_REGION_LENGTH__+0x7e009a>
    3d7e:	e1 e7       	ldi	r30, 0x71	; 113
    3d80:	f0 e0       	ldi	r31, 0x00	; 0
    3d82:	80 81       	ld	r24, Z
    3d84:	82 60       	ori	r24, 0x02	; 2
    3d86:	80 83       	st	Z, r24
    3d88:	80 81       	ld	r24, Z
    3d8a:	84 60       	ori	r24, 0x04	; 4
    3d8c:	80 83       	st	Z, r24
    3d8e:	70 93 0b 08 	sts	0x080B, r23	; 0x80080b <callback_a_temp+0x1>
    3d92:	60 93 0a 08 	sts	0x080A, r22	; 0x80080a <callback_a_temp>
    3d96:	30 93 09 08 	sts	0x0809, r19	; 0x800809 <callback_b_temp+0x1>
    3d9a:	20 93 08 08 	sts	0x0808, r18	; 0x800808 <callback_b_temp>
    3d9e:	78 94       	sei
    3da0:	85 e0       	ldi	r24, 0x05	; 5
    3da2:	80 93 91 00 	sts	0x0091, r24	; 0x800091 <__TEXT_REGION_LENGTH__+0x7e0091>
    3da6:	08 95       	ret

00003da8 <timer_stop>:
    3da8:	10 92 91 00 	sts	0x0091, r1	; 0x800091 <__TEXT_REGION_LENGTH__+0x7e0091>
    3dac:	08 95       	ret

00003dae <__vector_32>:
    3dae:	1f 92       	push	r1
    3db0:	0f 92       	push	r0
    3db2:	0f b6       	in	r0, 0x3f	; 63
    3db4:	0f 92       	push	r0
    3db6:	11 24       	eor	r1, r1
    3db8:	0b b6       	in	r0, 0x3b	; 59
    3dba:	0f 92       	push	r0
    3dbc:	2f 93       	push	r18
    3dbe:	3f 93       	push	r19
    3dc0:	4f 93       	push	r20
    3dc2:	5f 93       	push	r21
    3dc4:	6f 93       	push	r22
    3dc6:	7f 93       	push	r23
    3dc8:	8f 93       	push	r24
    3dca:	9f 93       	push	r25
    3dcc:	af 93       	push	r26
    3dce:	bf 93       	push	r27
    3dd0:	ef 93       	push	r30
    3dd2:	ff 93       	push	r31
    3dd4:	e0 91 0a 08 	lds	r30, 0x080A	; 0x80080a <callback_a_temp>
    3dd8:	f0 91 0b 08 	lds	r31, 0x080B	; 0x80080b <callback_a_temp+0x1>
    3ddc:	30 97       	sbiw	r30, 0x00	; 0
    3dde:	29 f0       	breq	.+10     	; 0x3dea <__vector_32+0x3c>
    3de0:	09 95       	icall
    3de2:	10 92 0b 08 	sts	0x080B, r1	; 0x80080b <callback_a_temp+0x1>
    3de6:	10 92 0a 08 	sts	0x080A, r1	; 0x80080a <callback_a_temp>
    3dea:	ff 91       	pop	r31
    3dec:	ef 91       	pop	r30
    3dee:	bf 91       	pop	r27
    3df0:	af 91       	pop	r26
    3df2:	9f 91       	pop	r25
    3df4:	8f 91       	pop	r24
    3df6:	7f 91       	pop	r23
    3df8:	6f 91       	pop	r22
    3dfa:	5f 91       	pop	r21
    3dfc:	4f 91       	pop	r20
    3dfe:	3f 91       	pop	r19
    3e00:	2f 91       	pop	r18
    3e02:	0f 90       	pop	r0
    3e04:	0b be       	out	0x3b, r0	; 59
    3e06:	0f 90       	pop	r0
    3e08:	0f be       	out	0x3f, r0	; 63
    3e0a:	0f 90       	pop	r0
    3e0c:	1f 90       	pop	r1
    3e0e:	18 95       	reti

00003e10 <__vector_33>:
    3e10:	1f 92       	push	r1
    3e12:	0f 92       	push	r0
    3e14:	0f b6       	in	r0, 0x3f	; 63
    3e16:	0f 92       	push	r0
    3e18:	11 24       	eor	r1, r1
    3e1a:	0b b6       	in	r0, 0x3b	; 59
    3e1c:	0f 92       	push	r0
    3e1e:	2f 93       	push	r18
    3e20:	3f 93       	push	r19
    3e22:	4f 93       	push	r20
    3e24:	5f 93       	push	r21
    3e26:	6f 93       	push	r22
    3e28:	7f 93       	push	r23
    3e2a:	8f 93       	push	r24
    3e2c:	9f 93       	push	r25
    3e2e:	af 93       	push	r26
    3e30:	bf 93       	push	r27
    3e32:	ef 93       	push	r30
    3e34:	ff 93       	push	r31
    3e36:	e0 91 08 08 	lds	r30, 0x0808	; 0x800808 <callback_b_temp>
    3e3a:	f0 91 09 08 	lds	r31, 0x0809	; 0x800809 <callback_b_temp+0x1>
    3e3e:	30 97       	sbiw	r30, 0x00	; 0
    3e40:	29 f0       	breq	.+10     	; 0x3e4c <__vector_33+0x3c>
    3e42:	09 95       	icall
    3e44:	10 92 09 08 	sts	0x0809, r1	; 0x800809 <callback_b_temp+0x1>
    3e48:	10 92 08 08 	sts	0x0808, r1	; 0x800808 <callback_b_temp>
    3e4c:	ff 91       	pop	r31
    3e4e:	ef 91       	pop	r30
    3e50:	bf 91       	pop	r27
    3e52:	af 91       	pop	r26
    3e54:	9f 91       	pop	r25
    3e56:	8f 91       	pop	r24
    3e58:	7f 91       	pop	r23
    3e5a:	6f 91       	pop	r22
    3e5c:	5f 91       	pop	r21
    3e5e:	4f 91       	pop	r20
    3e60:	3f 91       	pop	r19
    3e62:	2f 91       	pop	r18
    3e64:	0f 90       	pop	r0
    3e66:	0b be       	out	0x3b, r0	; 59
    3e68:	0f 90       	pop	r0
    3e6a:	0f be       	out	0x3f, r0	; 63
    3e6c:	0f 90       	pop	r0
    3e6e:	1f 90       	pop	r1
    3e70:	18 95       	reti

00003e72 <uart_init>:
    3e72:	10 92 c5 00 	sts	0x00C5, r1	; 0x8000c5 <__TEXT_REGION_LENGTH__+0x7e00c5>
    3e76:	8f e0       	ldi	r24, 0x0F	; 15
    3e78:	80 93 c4 00 	sts	0x00C4, r24	; 0x8000c4 <__TEXT_REGION_LENGTH__+0x7e00c4>
    3e7c:	88 e1       	ldi	r24, 0x18	; 24
    3e7e:	80 93 c1 00 	sts	0x00C1, r24	; 0x8000c1 <__TEXT_REGION_LENGTH__+0x7e00c1>
    3e82:	8e e0       	ldi	r24, 0x0E	; 14
    3e84:	80 93 c2 00 	sts	0x00C2, r24	; 0x8000c2 <__TEXT_REGION_LENGTH__+0x7e00c2>
    3e88:	08 95       	ret

00003e8a <uart_putc>:
    3e8a:	90 91 c0 00 	lds	r25, 0x00C0	; 0x8000c0 <__TEXT_REGION_LENGTH__+0x7e00c0>
    3e8e:	95 ff       	sbrs	r25, 5
    3e90:	fc cf       	rjmp	.-8      	; 0x3e8a <uart_putc>
    3e92:	80 93 c6 00 	sts	0x00C6, r24	; 0x8000c6 <__TEXT_REGION_LENGTH__+0x7e00c6>
    3e96:	08 95       	ret

00003e98 <uart_puts>:
    3e98:	cf 93       	push	r28
    3e9a:	df 93       	push	r29
    3e9c:	ec 01       	movw	r28, r24
    3e9e:	02 c0       	rjmp	.+4      	; 0x3ea4 <uart_puts+0xc>
    3ea0:	21 96       	adiw	r28, 0x01	; 1
    3ea2:	f3 df       	rcall	.-26     	; 0x3e8a <uart_putc>
    3ea4:	88 81       	ld	r24, Y
    3ea6:	81 11       	cpse	r24, r1
    3ea8:	fb cf       	rjmp	.-10     	; 0x3ea0 <uart_puts+0x8>
    3eaa:	df 91       	pop	r29
    3eac:	cf 91       	pop	r28
    3eae:	08 95       	ret

00003eb0 <uart_putn>:
    3eb0:	cf 93       	push	r28
    3eb2:	df 93       	push	r29
    3eb4:	cd b7       	in	r28, 0x3d	; 61
    3eb6:	de b7       	in	r29, 0x3e	; 62
    3eb8:	28 97       	sbiw	r28, 0x08	; 8
    3eba:	0f b6       	in	r0, 0x3f	; 63
    3ebc:	f8 94       	cli
    3ebe:	de bf       	out	0x3e, r29	; 62
    3ec0:	0f be       	out	0x3f, r0	; 63
    3ec2:	cd bf       	out	0x3d, r28	; 61
    3ec4:	4a e0       	ldi	r20, 0x0A	; 10
    3ec6:	be 01       	movw	r22, r28
    3ec8:	6f 5f       	subi	r22, 0xFF	; 255
    3eca:	7f 4f       	sbci	r23, 0xFF	; 255
    3ecc:	90 e0       	ldi	r25, 0x00	; 0
    3ece:	c4 d3       	rcall	.+1928   	; 0x4658 <__itoa_ncheck>
    3ed0:	ce 01       	movw	r24, r28
    3ed2:	01 96       	adiw	r24, 0x01	; 1
    3ed4:	e1 df       	rcall	.-62     	; 0x3e98 <uart_puts>
    3ed6:	28 96       	adiw	r28, 0x08	; 8
    3ed8:	0f b6       	in	r0, 0x3f	; 63
    3eda:	f8 94       	cli
    3edc:	de bf       	out	0x3e, r29	; 62
    3ede:	0f be       	out	0x3f, r0	; 63
    3ee0:	cd bf       	out	0x3d, r28	; 61
    3ee2:	df 91       	pop	r29
    3ee4:	cf 91       	pop	r28
    3ee6:	08 95       	ret

00003ee8 <uart_put>:
    3ee8:	cf 93       	push	r28
    3eea:	df 93       	push	r29
    3eec:	cd b7       	in	r28, 0x3d	; 61
    3eee:	de b7       	in	r29, 0x3e	; 62
    3ef0:	da 95       	dec	r29
    3ef2:	0f b6       	in	r0, 0x3f	; 63
    3ef4:	f8 94       	cli
    3ef6:	de bf       	out	0x3e, r29	; 62
    3ef8:	0f be       	out	0x3f, r0	; 63
    3efa:	cd bf       	out	0x3d, r28	; 61
    3efc:	9e 01       	movw	r18, r28
    3efe:	2b 5f       	subi	r18, 0xFB	; 251
    3f00:	3e 4f       	sbci	r19, 0xFE	; 254
    3f02:	f9 01       	movw	r30, r18
    3f04:	41 91       	ld	r20, Z+
    3f06:	51 91       	ld	r21, Z+
    3f08:	9f 01       	movw	r18, r30
    3f0a:	60 e0       	ldi	r22, 0x00	; 0
    3f0c:	71 e0       	ldi	r23, 0x01	; 1
    3f0e:	ce 01       	movw	r24, r28
    3f10:	01 96       	adiw	r24, 0x01	; 1
    3f12:	c5 d3       	rcall	.+1930   	; 0x469e <vsnprintf>
    3f14:	ce 01       	movw	r24, r28
    3f16:	01 96       	adiw	r24, 0x01	; 1
    3f18:	bf df       	rcall	.-130    	; 0x3e98 <uart_puts>
    3f1a:	8a e1       	ldi	r24, 0x1A	; 26
    3f1c:	92 e0       	ldi	r25, 0x02	; 2
    3f1e:	bc df       	rcall	.-136    	; 0x3e98 <uart_puts>
    3f20:	d3 95       	inc	r29
    3f22:	0f b6       	in	r0, 0x3f	; 63
    3f24:	f8 94       	cli
    3f26:	de bf       	out	0x3e, r29	; 62
    3f28:	0f be       	out	0x3f, r0	; 63
    3f2a:	cd bf       	out	0x3d, r28	; 61
    3f2c:	df 91       	pop	r29
    3f2e:	cf 91       	pop	r28
    3f30:	08 95       	ret

00003f32 <__divsf3>:
    3f32:	0c d0       	rcall	.+24     	; 0x3f4c <__divsf3x>
    3f34:	e6 c0       	rjmp	.+460    	; 0x4102 <__fp_round>
    3f36:	de d0       	rcall	.+444    	; 0x40f4 <__fp_pscB>
    3f38:	40 f0       	brcs	.+16     	; 0x3f4a <__divsf3+0x18>
    3f3a:	d5 d0       	rcall	.+426    	; 0x40e6 <__fp_pscA>
    3f3c:	30 f0       	brcs	.+12     	; 0x3f4a <__divsf3+0x18>
    3f3e:	21 f4       	brne	.+8      	; 0x3f48 <__divsf3+0x16>
    3f40:	5f 3f       	cpi	r21, 0xFF	; 255
    3f42:	19 f0       	breq	.+6      	; 0x3f4a <__divsf3+0x18>
    3f44:	c7 c0       	rjmp	.+398    	; 0x40d4 <__fp_inf>
    3f46:	51 11       	cpse	r21, r1
    3f48:	10 c1       	rjmp	.+544    	; 0x416a <__fp_szero>
    3f4a:	ca c0       	rjmp	.+404    	; 0x40e0 <__fp_nan>

00003f4c <__divsf3x>:
    3f4c:	eb d0       	rcall	.+470    	; 0x4124 <__fp_split3>
    3f4e:	98 f3       	brcs	.-26     	; 0x3f36 <__divsf3+0x4>

00003f50 <__divsf3_pse>:
    3f50:	99 23       	and	r25, r25
    3f52:	c9 f3       	breq	.-14     	; 0x3f46 <__divsf3+0x14>
    3f54:	55 23       	and	r21, r21
    3f56:	b1 f3       	breq	.-20     	; 0x3f44 <__divsf3+0x12>
    3f58:	95 1b       	sub	r25, r21
    3f5a:	55 0b       	sbc	r21, r21
    3f5c:	bb 27       	eor	r27, r27
    3f5e:	aa 27       	eor	r26, r26
    3f60:	62 17       	cp	r22, r18
    3f62:	73 07       	cpc	r23, r19
    3f64:	84 07       	cpc	r24, r20
    3f66:	38 f0       	brcs	.+14     	; 0x3f76 <__divsf3_pse+0x26>
    3f68:	9f 5f       	subi	r25, 0xFF	; 255
    3f6a:	5f 4f       	sbci	r21, 0xFF	; 255
    3f6c:	22 0f       	add	r18, r18
    3f6e:	33 1f       	adc	r19, r19
    3f70:	44 1f       	adc	r20, r20
    3f72:	aa 1f       	adc	r26, r26
    3f74:	a9 f3       	breq	.-22     	; 0x3f60 <__divsf3_pse+0x10>
    3f76:	33 d0       	rcall	.+102    	; 0x3fde <__divsf3_pse+0x8e>
    3f78:	0e 2e       	mov	r0, r30
    3f7a:	3a f0       	brmi	.+14     	; 0x3f8a <__divsf3_pse+0x3a>
    3f7c:	e0 e8       	ldi	r30, 0x80	; 128
    3f7e:	30 d0       	rcall	.+96     	; 0x3fe0 <__divsf3_pse+0x90>
    3f80:	91 50       	subi	r25, 0x01	; 1
    3f82:	50 40       	sbci	r21, 0x00	; 0
    3f84:	e6 95       	lsr	r30
    3f86:	00 1c       	adc	r0, r0
    3f88:	ca f7       	brpl	.-14     	; 0x3f7c <__divsf3_pse+0x2c>
    3f8a:	29 d0       	rcall	.+82     	; 0x3fde <__divsf3_pse+0x8e>
    3f8c:	fe 2f       	mov	r31, r30
    3f8e:	27 d0       	rcall	.+78     	; 0x3fde <__divsf3_pse+0x8e>
    3f90:	66 0f       	add	r22, r22
    3f92:	77 1f       	adc	r23, r23
    3f94:	88 1f       	adc	r24, r24
    3f96:	bb 1f       	adc	r27, r27
    3f98:	26 17       	cp	r18, r22
    3f9a:	37 07       	cpc	r19, r23
    3f9c:	48 07       	cpc	r20, r24
    3f9e:	ab 07       	cpc	r26, r27
    3fa0:	b0 e8       	ldi	r27, 0x80	; 128
    3fa2:	09 f0       	breq	.+2      	; 0x3fa6 <__divsf3_pse+0x56>
    3fa4:	bb 0b       	sbc	r27, r27
    3fa6:	80 2d       	mov	r24, r0
    3fa8:	bf 01       	movw	r22, r30
    3faa:	ff 27       	eor	r31, r31
    3fac:	93 58       	subi	r25, 0x83	; 131
    3fae:	5f 4f       	sbci	r21, 0xFF	; 255
    3fb0:	2a f0       	brmi	.+10     	; 0x3fbc <__divsf3_pse+0x6c>
    3fb2:	9e 3f       	cpi	r25, 0xFE	; 254
    3fb4:	51 05       	cpc	r21, r1
    3fb6:	68 f0       	brcs	.+26     	; 0x3fd2 <__divsf3_pse+0x82>
    3fb8:	8d c0       	rjmp	.+282    	; 0x40d4 <__fp_inf>
    3fba:	d7 c0       	rjmp	.+430    	; 0x416a <__fp_szero>
    3fbc:	5f 3f       	cpi	r21, 0xFF	; 255
    3fbe:	ec f3       	brlt	.-6      	; 0x3fba <__divsf3_pse+0x6a>
    3fc0:	98 3e       	cpi	r25, 0xE8	; 232
    3fc2:	dc f3       	brlt	.-10     	; 0x3fba <__divsf3_pse+0x6a>
    3fc4:	86 95       	lsr	r24
    3fc6:	77 95       	ror	r23
    3fc8:	67 95       	ror	r22
    3fca:	b7 95       	ror	r27
    3fcc:	f7 95       	ror	r31
    3fce:	9f 5f       	subi	r25, 0xFF	; 255
    3fd0:	c9 f7       	brne	.-14     	; 0x3fc4 <__divsf3_pse+0x74>
    3fd2:	88 0f       	add	r24, r24
    3fd4:	91 1d       	adc	r25, r1
    3fd6:	96 95       	lsr	r25
    3fd8:	87 95       	ror	r24
    3fda:	97 f9       	bld	r25, 7
    3fdc:	08 95       	ret
    3fde:	e1 e0       	ldi	r30, 0x01	; 1
    3fe0:	66 0f       	add	r22, r22
    3fe2:	77 1f       	adc	r23, r23
    3fe4:	88 1f       	adc	r24, r24
    3fe6:	bb 1f       	adc	r27, r27
    3fe8:	62 17       	cp	r22, r18
    3fea:	73 07       	cpc	r23, r19
    3fec:	84 07       	cpc	r24, r20
    3fee:	ba 07       	cpc	r27, r26
    3ff0:	20 f0       	brcs	.+8      	; 0x3ffa <__divsf3_pse+0xaa>
    3ff2:	62 1b       	sub	r22, r18
    3ff4:	73 0b       	sbc	r23, r19
    3ff6:	84 0b       	sbc	r24, r20
    3ff8:	ba 0b       	sbc	r27, r26
    3ffa:	ee 1f       	adc	r30, r30
    3ffc:	88 f7       	brcc	.-30     	; 0x3fe0 <__divsf3_pse+0x90>
    3ffe:	e0 95       	com	r30
    4000:	08 95       	ret

00004002 <__fixunssfsi>:
    4002:	98 d0       	rcall	.+304    	; 0x4134 <__fp_splitA>
    4004:	88 f0       	brcs	.+34     	; 0x4028 <__fixunssfsi+0x26>
    4006:	9f 57       	subi	r25, 0x7F	; 127
    4008:	90 f0       	brcs	.+36     	; 0x402e <__fixunssfsi+0x2c>
    400a:	b9 2f       	mov	r27, r25
    400c:	99 27       	eor	r25, r25
    400e:	b7 51       	subi	r27, 0x17	; 23
    4010:	a0 f0       	brcs	.+40     	; 0x403a <__fixunssfsi+0x38>
    4012:	d1 f0       	breq	.+52     	; 0x4048 <__fixunssfsi+0x46>
    4014:	66 0f       	add	r22, r22
    4016:	77 1f       	adc	r23, r23
    4018:	88 1f       	adc	r24, r24
    401a:	99 1f       	adc	r25, r25
    401c:	1a f0       	brmi	.+6      	; 0x4024 <__fixunssfsi+0x22>
    401e:	ba 95       	dec	r27
    4020:	c9 f7       	brne	.-14     	; 0x4014 <__fixunssfsi+0x12>
    4022:	12 c0       	rjmp	.+36     	; 0x4048 <__fixunssfsi+0x46>
    4024:	b1 30       	cpi	r27, 0x01	; 1
    4026:	81 f0       	breq	.+32     	; 0x4048 <__fixunssfsi+0x46>
    4028:	9f d0       	rcall	.+318    	; 0x4168 <__fp_zero>
    402a:	b1 e0       	ldi	r27, 0x01	; 1
    402c:	08 95       	ret
    402e:	9c c0       	rjmp	.+312    	; 0x4168 <__fp_zero>
    4030:	67 2f       	mov	r22, r23
    4032:	78 2f       	mov	r23, r24
    4034:	88 27       	eor	r24, r24
    4036:	b8 5f       	subi	r27, 0xF8	; 248
    4038:	39 f0       	breq	.+14     	; 0x4048 <__fixunssfsi+0x46>
    403a:	b9 3f       	cpi	r27, 0xF9	; 249
    403c:	cc f3       	brlt	.-14     	; 0x4030 <__fixunssfsi+0x2e>
    403e:	86 95       	lsr	r24
    4040:	77 95       	ror	r23
    4042:	67 95       	ror	r22
    4044:	b3 95       	inc	r27
    4046:	d9 f7       	brne	.-10     	; 0x403e <__fixunssfsi+0x3c>
    4048:	3e f4       	brtc	.+14     	; 0x4058 <__fixunssfsi+0x56>
    404a:	90 95       	com	r25
    404c:	80 95       	com	r24
    404e:	70 95       	com	r23
    4050:	61 95       	neg	r22
    4052:	7f 4f       	sbci	r23, 0xFF	; 255
    4054:	8f 4f       	sbci	r24, 0xFF	; 255
    4056:	9f 4f       	sbci	r25, 0xFF	; 255
    4058:	08 95       	ret

0000405a <__floatunsisf>:
    405a:	e8 94       	clt
    405c:	09 c0       	rjmp	.+18     	; 0x4070 <__floatsisf+0x12>

0000405e <__floatsisf>:
    405e:	97 fb       	bst	r25, 7
    4060:	3e f4       	brtc	.+14     	; 0x4070 <__floatsisf+0x12>
    4062:	90 95       	com	r25
    4064:	80 95       	com	r24
    4066:	70 95       	com	r23
    4068:	61 95       	neg	r22
    406a:	7f 4f       	sbci	r23, 0xFF	; 255
    406c:	8f 4f       	sbci	r24, 0xFF	; 255
    406e:	9f 4f       	sbci	r25, 0xFF	; 255
    4070:	99 23       	and	r25, r25
    4072:	a9 f0       	breq	.+42     	; 0x409e <__floatsisf+0x40>
    4074:	f9 2f       	mov	r31, r25
    4076:	96 e9       	ldi	r25, 0x96	; 150
    4078:	bb 27       	eor	r27, r27
    407a:	93 95       	inc	r25
    407c:	f6 95       	lsr	r31
    407e:	87 95       	ror	r24
    4080:	77 95       	ror	r23
    4082:	67 95       	ror	r22
    4084:	b7 95       	ror	r27
    4086:	f1 11       	cpse	r31, r1
    4088:	f8 cf       	rjmp	.-16     	; 0x407a <__floatsisf+0x1c>
    408a:	fa f4       	brpl	.+62     	; 0x40ca <__floatsisf+0x6c>
    408c:	bb 0f       	add	r27, r27
    408e:	11 f4       	brne	.+4      	; 0x4094 <__floatsisf+0x36>
    4090:	60 ff       	sbrs	r22, 0
    4092:	1b c0       	rjmp	.+54     	; 0x40ca <__floatsisf+0x6c>
    4094:	6f 5f       	subi	r22, 0xFF	; 255
    4096:	7f 4f       	sbci	r23, 0xFF	; 255
    4098:	8f 4f       	sbci	r24, 0xFF	; 255
    409a:	9f 4f       	sbci	r25, 0xFF	; 255
    409c:	16 c0       	rjmp	.+44     	; 0x40ca <__floatsisf+0x6c>
    409e:	88 23       	and	r24, r24
    40a0:	11 f0       	breq	.+4      	; 0x40a6 <__floatsisf+0x48>
    40a2:	96 e9       	ldi	r25, 0x96	; 150
    40a4:	11 c0       	rjmp	.+34     	; 0x40c8 <__floatsisf+0x6a>
    40a6:	77 23       	and	r23, r23
    40a8:	21 f0       	breq	.+8      	; 0x40b2 <__floatsisf+0x54>
    40aa:	9e e8       	ldi	r25, 0x8E	; 142
    40ac:	87 2f       	mov	r24, r23
    40ae:	76 2f       	mov	r23, r22
    40b0:	05 c0       	rjmp	.+10     	; 0x40bc <__floatsisf+0x5e>
    40b2:	66 23       	and	r22, r22
    40b4:	71 f0       	breq	.+28     	; 0x40d2 <__floatsisf+0x74>
    40b6:	96 e8       	ldi	r25, 0x86	; 134
    40b8:	86 2f       	mov	r24, r22
    40ba:	70 e0       	ldi	r23, 0x00	; 0
    40bc:	60 e0       	ldi	r22, 0x00	; 0
    40be:	2a f0       	brmi	.+10     	; 0x40ca <__floatsisf+0x6c>
    40c0:	9a 95       	dec	r25
    40c2:	66 0f       	add	r22, r22
    40c4:	77 1f       	adc	r23, r23
    40c6:	88 1f       	adc	r24, r24
    40c8:	da f7       	brpl	.-10     	; 0x40c0 <__floatsisf+0x62>
    40ca:	88 0f       	add	r24, r24
    40cc:	96 95       	lsr	r25
    40ce:	87 95       	ror	r24
    40d0:	97 f9       	bld	r25, 7
    40d2:	08 95       	ret

000040d4 <__fp_inf>:
    40d4:	97 f9       	bld	r25, 7
    40d6:	9f 67       	ori	r25, 0x7F	; 127
    40d8:	80 e8       	ldi	r24, 0x80	; 128
    40da:	70 e0       	ldi	r23, 0x00	; 0
    40dc:	60 e0       	ldi	r22, 0x00	; 0
    40de:	08 95       	ret

000040e0 <__fp_nan>:
    40e0:	9f ef       	ldi	r25, 0xFF	; 255
    40e2:	80 ec       	ldi	r24, 0xC0	; 192
    40e4:	08 95       	ret

000040e6 <__fp_pscA>:
    40e6:	00 24       	eor	r0, r0
    40e8:	0a 94       	dec	r0
    40ea:	16 16       	cp	r1, r22
    40ec:	17 06       	cpc	r1, r23
    40ee:	18 06       	cpc	r1, r24
    40f0:	09 06       	cpc	r0, r25
    40f2:	08 95       	ret

000040f4 <__fp_pscB>:
    40f4:	00 24       	eor	r0, r0
    40f6:	0a 94       	dec	r0
    40f8:	12 16       	cp	r1, r18
    40fa:	13 06       	cpc	r1, r19
    40fc:	14 06       	cpc	r1, r20
    40fe:	05 06       	cpc	r0, r21
    4100:	08 95       	ret

00004102 <__fp_round>:
    4102:	09 2e       	mov	r0, r25
    4104:	03 94       	inc	r0
    4106:	00 0c       	add	r0, r0
    4108:	11 f4       	brne	.+4      	; 0x410e <__fp_round+0xc>
    410a:	88 23       	and	r24, r24
    410c:	52 f0       	brmi	.+20     	; 0x4122 <__fp_round+0x20>
    410e:	bb 0f       	add	r27, r27
    4110:	40 f4       	brcc	.+16     	; 0x4122 <__fp_round+0x20>
    4112:	bf 2b       	or	r27, r31
    4114:	11 f4       	brne	.+4      	; 0x411a <__fp_round+0x18>
    4116:	60 ff       	sbrs	r22, 0
    4118:	04 c0       	rjmp	.+8      	; 0x4122 <__fp_round+0x20>
    411a:	6f 5f       	subi	r22, 0xFF	; 255
    411c:	7f 4f       	sbci	r23, 0xFF	; 255
    411e:	8f 4f       	sbci	r24, 0xFF	; 255
    4120:	9f 4f       	sbci	r25, 0xFF	; 255
    4122:	08 95       	ret

00004124 <__fp_split3>:
    4124:	57 fd       	sbrc	r21, 7
    4126:	90 58       	subi	r25, 0x80	; 128
    4128:	44 0f       	add	r20, r20
    412a:	55 1f       	adc	r21, r21
    412c:	59 f0       	breq	.+22     	; 0x4144 <__fp_splitA+0x10>
    412e:	5f 3f       	cpi	r21, 0xFF	; 255
    4130:	71 f0       	breq	.+28     	; 0x414e <__fp_splitA+0x1a>
    4132:	47 95       	ror	r20

00004134 <__fp_splitA>:
    4134:	88 0f       	add	r24, r24
    4136:	97 fb       	bst	r25, 7
    4138:	99 1f       	adc	r25, r25
    413a:	61 f0       	breq	.+24     	; 0x4154 <__fp_splitA+0x20>
    413c:	9f 3f       	cpi	r25, 0xFF	; 255
    413e:	79 f0       	breq	.+30     	; 0x415e <__fp_splitA+0x2a>
    4140:	87 95       	ror	r24
    4142:	08 95       	ret
    4144:	12 16       	cp	r1, r18
    4146:	13 06       	cpc	r1, r19
    4148:	14 06       	cpc	r1, r20
    414a:	55 1f       	adc	r21, r21
    414c:	f2 cf       	rjmp	.-28     	; 0x4132 <__fp_split3+0xe>
    414e:	46 95       	lsr	r20
    4150:	f1 df       	rcall	.-30     	; 0x4134 <__fp_splitA>
    4152:	08 c0       	rjmp	.+16     	; 0x4164 <__fp_splitA+0x30>
    4154:	16 16       	cp	r1, r22
    4156:	17 06       	cpc	r1, r23
    4158:	18 06       	cpc	r1, r24
    415a:	99 1f       	adc	r25, r25
    415c:	f1 cf       	rjmp	.-30     	; 0x4140 <__fp_splitA+0xc>
    415e:	86 95       	lsr	r24
    4160:	71 05       	cpc	r23, r1
    4162:	61 05       	cpc	r22, r1
    4164:	08 94       	sec
    4166:	08 95       	ret

00004168 <__fp_zero>:
    4168:	e8 94       	clt

0000416a <__fp_szero>:
    416a:	bb 27       	eor	r27, r27
    416c:	66 27       	eor	r22, r22
    416e:	77 27       	eor	r23, r23
    4170:	cb 01       	movw	r24, r22
    4172:	97 f9       	bld	r25, 7
    4174:	08 95       	ret

00004176 <__mulsf3>:
    4176:	0b d0       	rcall	.+22     	; 0x418e <__mulsf3x>
    4178:	c4 cf       	rjmp	.-120    	; 0x4102 <__fp_round>
    417a:	b5 df       	rcall	.-150    	; 0x40e6 <__fp_pscA>
    417c:	28 f0       	brcs	.+10     	; 0x4188 <__mulsf3+0x12>
    417e:	ba df       	rcall	.-140    	; 0x40f4 <__fp_pscB>
    4180:	18 f0       	brcs	.+6      	; 0x4188 <__mulsf3+0x12>
    4182:	95 23       	and	r25, r21
    4184:	09 f0       	breq	.+2      	; 0x4188 <__mulsf3+0x12>
    4186:	a6 cf       	rjmp	.-180    	; 0x40d4 <__fp_inf>
    4188:	ab cf       	rjmp	.-170    	; 0x40e0 <__fp_nan>
    418a:	11 24       	eor	r1, r1
    418c:	ee cf       	rjmp	.-36     	; 0x416a <__fp_szero>

0000418e <__mulsf3x>:
    418e:	ca df       	rcall	.-108    	; 0x4124 <__fp_split3>
    4190:	a0 f3       	brcs	.-24     	; 0x417a <__mulsf3+0x4>

00004192 <__mulsf3_pse>:
    4192:	95 9f       	mul	r25, r21
    4194:	d1 f3       	breq	.-12     	; 0x418a <__mulsf3+0x14>
    4196:	95 0f       	add	r25, r21
    4198:	50 e0       	ldi	r21, 0x00	; 0
    419a:	55 1f       	adc	r21, r21
    419c:	62 9f       	mul	r22, r18
    419e:	f0 01       	movw	r30, r0
    41a0:	72 9f       	mul	r23, r18
    41a2:	bb 27       	eor	r27, r27
    41a4:	f0 0d       	add	r31, r0
    41a6:	b1 1d       	adc	r27, r1
    41a8:	63 9f       	mul	r22, r19
    41aa:	aa 27       	eor	r26, r26
    41ac:	f0 0d       	add	r31, r0
    41ae:	b1 1d       	adc	r27, r1
    41b0:	aa 1f       	adc	r26, r26
    41b2:	64 9f       	mul	r22, r20
    41b4:	66 27       	eor	r22, r22
    41b6:	b0 0d       	add	r27, r0
    41b8:	a1 1d       	adc	r26, r1
    41ba:	66 1f       	adc	r22, r22
    41bc:	82 9f       	mul	r24, r18
    41be:	22 27       	eor	r18, r18
    41c0:	b0 0d       	add	r27, r0
    41c2:	a1 1d       	adc	r26, r1
    41c4:	62 1f       	adc	r22, r18
    41c6:	73 9f       	mul	r23, r19
    41c8:	b0 0d       	add	r27, r0
    41ca:	a1 1d       	adc	r26, r1
    41cc:	62 1f       	adc	r22, r18
    41ce:	83 9f       	mul	r24, r19
    41d0:	a0 0d       	add	r26, r0
    41d2:	61 1d       	adc	r22, r1
    41d4:	22 1f       	adc	r18, r18
    41d6:	74 9f       	mul	r23, r20
    41d8:	33 27       	eor	r19, r19
    41da:	a0 0d       	add	r26, r0
    41dc:	61 1d       	adc	r22, r1
    41de:	23 1f       	adc	r18, r19
    41e0:	84 9f       	mul	r24, r20
    41e2:	60 0d       	add	r22, r0
    41e4:	21 1d       	adc	r18, r1
    41e6:	82 2f       	mov	r24, r18
    41e8:	76 2f       	mov	r23, r22
    41ea:	6a 2f       	mov	r22, r26
    41ec:	11 24       	eor	r1, r1
    41ee:	9f 57       	subi	r25, 0x7F	; 127
    41f0:	50 40       	sbci	r21, 0x00	; 0
    41f2:	8a f0       	brmi	.+34     	; 0x4216 <__mulsf3_pse+0x84>
    41f4:	e1 f0       	breq	.+56     	; 0x422e <__mulsf3_pse+0x9c>
    41f6:	88 23       	and	r24, r24
    41f8:	4a f0       	brmi	.+18     	; 0x420c <__mulsf3_pse+0x7a>
    41fa:	ee 0f       	add	r30, r30
    41fc:	ff 1f       	adc	r31, r31
    41fe:	bb 1f       	adc	r27, r27
    4200:	66 1f       	adc	r22, r22
    4202:	77 1f       	adc	r23, r23
    4204:	88 1f       	adc	r24, r24
    4206:	91 50       	subi	r25, 0x01	; 1
    4208:	50 40       	sbci	r21, 0x00	; 0
    420a:	a9 f7       	brne	.-22     	; 0x41f6 <__mulsf3_pse+0x64>
    420c:	9e 3f       	cpi	r25, 0xFE	; 254
    420e:	51 05       	cpc	r21, r1
    4210:	70 f0       	brcs	.+28     	; 0x422e <__mulsf3_pse+0x9c>
    4212:	60 cf       	rjmp	.-320    	; 0x40d4 <__fp_inf>
    4214:	aa cf       	rjmp	.-172    	; 0x416a <__fp_szero>
    4216:	5f 3f       	cpi	r21, 0xFF	; 255
    4218:	ec f3       	brlt	.-6      	; 0x4214 <__mulsf3_pse+0x82>
    421a:	98 3e       	cpi	r25, 0xE8	; 232
    421c:	dc f3       	brlt	.-10     	; 0x4214 <__mulsf3_pse+0x82>
    421e:	86 95       	lsr	r24
    4220:	77 95       	ror	r23
    4222:	67 95       	ror	r22
    4224:	b7 95       	ror	r27
    4226:	f7 95       	ror	r31
    4228:	e7 95       	ror	r30
    422a:	9f 5f       	subi	r25, 0xFF	; 255
    422c:	c1 f7       	brne	.-16     	; 0x421e <__mulsf3_pse+0x8c>
    422e:	fe 2b       	or	r31, r30
    4230:	88 0f       	add	r24, r24
    4232:	91 1d       	adc	r25, r1
    4234:	96 95       	lsr	r25
    4236:	87 95       	ror	r24
    4238:	97 f9       	bld	r25, 7
    423a:	08 95       	ret

0000423c <__udivmodqi4>:
    423c:	99 1b       	sub	r25, r25
    423e:	79 e0       	ldi	r23, 0x09	; 9
    4240:	04 c0       	rjmp	.+8      	; 0x424a <__udivmodqi4_ep>

00004242 <__udivmodqi4_loop>:
    4242:	99 1f       	adc	r25, r25
    4244:	96 17       	cp	r25, r22
    4246:	08 f0       	brcs	.+2      	; 0x424a <__udivmodqi4_ep>
    4248:	96 1b       	sub	r25, r22

0000424a <__udivmodqi4_ep>:
    424a:	88 1f       	adc	r24, r24
    424c:	7a 95       	dec	r23
    424e:	c9 f7       	brne	.-14     	; 0x4242 <__udivmodqi4_loop>
    4250:	80 95       	com	r24
    4252:	08 95       	ret

00004254 <__udivmodhi4>:
    4254:	aa 1b       	sub	r26, r26
    4256:	bb 1b       	sub	r27, r27
    4258:	51 e1       	ldi	r21, 0x11	; 17
    425a:	07 c0       	rjmp	.+14     	; 0x426a <__udivmodhi4_ep>

0000425c <__udivmodhi4_loop>:
    425c:	aa 1f       	adc	r26, r26
    425e:	bb 1f       	adc	r27, r27
    4260:	a6 17       	cp	r26, r22
    4262:	b7 07       	cpc	r27, r23
    4264:	10 f0       	brcs	.+4      	; 0x426a <__udivmodhi4_ep>
    4266:	a6 1b       	sub	r26, r22
    4268:	b7 0b       	sbc	r27, r23

0000426a <__udivmodhi4_ep>:
    426a:	88 1f       	adc	r24, r24
    426c:	99 1f       	adc	r25, r25
    426e:	5a 95       	dec	r21
    4270:	a9 f7       	brne	.-22     	; 0x425c <__udivmodhi4_loop>
    4272:	80 95       	com	r24
    4274:	90 95       	com	r25
    4276:	bc 01       	movw	r22, r24
    4278:	cd 01       	movw	r24, r26
    427a:	08 95       	ret

0000427c <__divmodhi4>:
    427c:	97 fb       	bst	r25, 7
    427e:	07 2e       	mov	r0, r23
    4280:	16 f4       	brtc	.+4      	; 0x4286 <__divmodhi4+0xa>
    4282:	00 94       	com	r0
    4284:	06 d0       	rcall	.+12     	; 0x4292 <__divmodhi4_neg1>
    4286:	77 fd       	sbrc	r23, 7
    4288:	08 d0       	rcall	.+16     	; 0x429a <__divmodhi4_neg2>
    428a:	e4 df       	rcall	.-56     	; 0x4254 <__udivmodhi4>
    428c:	07 fc       	sbrc	r0, 7
    428e:	05 d0       	rcall	.+10     	; 0x429a <__divmodhi4_neg2>
    4290:	3e f4       	brtc	.+14     	; 0x42a0 <__divmodhi4_exit>

00004292 <__divmodhi4_neg1>:
    4292:	90 95       	com	r25
    4294:	81 95       	neg	r24
    4296:	9f 4f       	sbci	r25, 0xFF	; 255
    4298:	08 95       	ret

0000429a <__divmodhi4_neg2>:
    429a:	70 95       	com	r23
    429c:	61 95       	neg	r22
    429e:	7f 4f       	sbci	r23, 0xFF	; 255

000042a0 <__divmodhi4_exit>:
    42a0:	08 95       	ret

000042a2 <__udivmodsi4>:
    42a2:	a1 e2       	ldi	r26, 0x21	; 33
    42a4:	1a 2e       	mov	r1, r26
    42a6:	aa 1b       	sub	r26, r26
    42a8:	bb 1b       	sub	r27, r27
    42aa:	fd 01       	movw	r30, r26
    42ac:	0d c0       	rjmp	.+26     	; 0x42c8 <__udivmodsi4_ep>

000042ae <__udivmodsi4_loop>:
    42ae:	aa 1f       	adc	r26, r26
    42b0:	bb 1f       	adc	r27, r27
    42b2:	ee 1f       	adc	r30, r30
    42b4:	ff 1f       	adc	r31, r31
    42b6:	a2 17       	cp	r26, r18
    42b8:	b3 07       	cpc	r27, r19
    42ba:	e4 07       	cpc	r30, r20
    42bc:	f5 07       	cpc	r31, r21
    42be:	20 f0       	brcs	.+8      	; 0x42c8 <__udivmodsi4_ep>
    42c0:	a2 1b       	sub	r26, r18
    42c2:	b3 0b       	sbc	r27, r19
    42c4:	e4 0b       	sbc	r30, r20
    42c6:	f5 0b       	sbc	r31, r21

000042c8 <__udivmodsi4_ep>:
    42c8:	66 1f       	adc	r22, r22
    42ca:	77 1f       	adc	r23, r23
    42cc:	88 1f       	adc	r24, r24
    42ce:	99 1f       	adc	r25, r25
    42d0:	1a 94       	dec	r1
    42d2:	69 f7       	brne	.-38     	; 0x42ae <__udivmodsi4_loop>
    42d4:	60 95       	com	r22
    42d6:	70 95       	com	r23
    42d8:	80 95       	com	r24
    42da:	90 95       	com	r25
    42dc:	9b 01       	movw	r18, r22
    42de:	ac 01       	movw	r20, r24
    42e0:	bd 01       	movw	r22, r26
    42e2:	cf 01       	movw	r24, r30
    42e4:	08 95       	ret

000042e6 <__tablejump2__>:
    42e6:	ee 0f       	add	r30, r30
    42e8:	ff 1f       	adc	r31, r31
    42ea:	00 24       	eor	r0, r0
    42ec:	00 1c       	adc	r0, r0
    42ee:	0b be       	out	0x3b, r0	; 59
    42f0:	07 90       	elpm	r0, Z+
    42f2:	f6 91       	elpm	r31, Z
    42f4:	e0 2d       	mov	r30, r0
    42f6:	09 94       	ijmp

000042f8 <__umulhisi3>:
    42f8:	a2 9f       	mul	r26, r18
    42fa:	b0 01       	movw	r22, r0
    42fc:	b3 9f       	mul	r27, r19
    42fe:	c0 01       	movw	r24, r0
    4300:	a3 9f       	mul	r26, r19
    4302:	70 0d       	add	r23, r0
    4304:	81 1d       	adc	r24, r1
    4306:	11 24       	eor	r1, r1
    4308:	91 1d       	adc	r25, r1
    430a:	b2 9f       	mul	r27, r18
    430c:	70 0d       	add	r23, r0
    430e:	81 1d       	adc	r24, r1
    4310:	11 24       	eor	r1, r1
    4312:	91 1d       	adc	r25, r1
    4314:	08 95       	ret

00004316 <__muluhisi3>:
    4316:	f0 df       	rcall	.-32     	; 0x42f8 <__umulhisi3>
    4318:	a5 9f       	mul	r26, r21
    431a:	90 0d       	add	r25, r0
    431c:	b4 9f       	mul	r27, r20
    431e:	90 0d       	add	r25, r0
    4320:	a4 9f       	mul	r26, r20
    4322:	80 0d       	add	r24, r0
    4324:	91 1d       	adc	r25, r1
    4326:	11 24       	eor	r1, r1
    4328:	08 95       	ret

0000432a <malloc>:
    432a:	0f 93       	push	r16
    432c:	1f 93       	push	r17
    432e:	cf 93       	push	r28
    4330:	df 93       	push	r29
    4332:	82 30       	cpi	r24, 0x02	; 2
    4334:	91 05       	cpc	r25, r1
    4336:	10 f4       	brcc	.+4      	; 0x433c <malloc+0x12>
    4338:	82 e0       	ldi	r24, 0x02	; 2
    433a:	90 e0       	ldi	r25, 0x00	; 0
    433c:	e0 91 99 09 	lds	r30, 0x0999	; 0x800999 <__flp>
    4340:	f0 91 9a 09 	lds	r31, 0x099A	; 0x80099a <__flp+0x1>
    4344:	20 e0       	ldi	r18, 0x00	; 0
    4346:	30 e0       	ldi	r19, 0x00	; 0
    4348:	a0 e0       	ldi	r26, 0x00	; 0
    434a:	b0 e0       	ldi	r27, 0x00	; 0
    434c:	30 97       	sbiw	r30, 0x00	; 0
    434e:	19 f1       	breq	.+70     	; 0x4396 <malloc+0x6c>
    4350:	40 81       	ld	r20, Z
    4352:	51 81       	ldd	r21, Z+1	; 0x01
    4354:	02 81       	ldd	r16, Z+2	; 0x02
    4356:	13 81       	ldd	r17, Z+3	; 0x03
    4358:	48 17       	cp	r20, r24
    435a:	59 07       	cpc	r21, r25
    435c:	c8 f0       	brcs	.+50     	; 0x4390 <malloc+0x66>
    435e:	84 17       	cp	r24, r20
    4360:	95 07       	cpc	r25, r21
    4362:	69 f4       	brne	.+26     	; 0x437e <malloc+0x54>
    4364:	10 97       	sbiw	r26, 0x00	; 0
    4366:	31 f0       	breq	.+12     	; 0x4374 <malloc+0x4a>
    4368:	12 96       	adiw	r26, 0x02	; 2
    436a:	0c 93       	st	X, r16
    436c:	12 97       	sbiw	r26, 0x02	; 2
    436e:	13 96       	adiw	r26, 0x03	; 3
    4370:	1c 93       	st	X, r17
    4372:	27 c0       	rjmp	.+78     	; 0x43c2 <malloc+0x98>
    4374:	00 93 99 09 	sts	0x0999, r16	; 0x800999 <__flp>
    4378:	10 93 9a 09 	sts	0x099A, r17	; 0x80099a <__flp+0x1>
    437c:	22 c0       	rjmp	.+68     	; 0x43c2 <malloc+0x98>
    437e:	21 15       	cp	r18, r1
    4380:	31 05       	cpc	r19, r1
    4382:	19 f0       	breq	.+6      	; 0x438a <malloc+0x60>
    4384:	42 17       	cp	r20, r18
    4386:	53 07       	cpc	r21, r19
    4388:	18 f4       	brcc	.+6      	; 0x4390 <malloc+0x66>
    438a:	9a 01       	movw	r18, r20
    438c:	bd 01       	movw	r22, r26
    438e:	ef 01       	movw	r28, r30
    4390:	df 01       	movw	r26, r30
    4392:	f8 01       	movw	r30, r16
    4394:	db cf       	rjmp	.-74     	; 0x434c <malloc+0x22>
    4396:	21 15       	cp	r18, r1
    4398:	31 05       	cpc	r19, r1
    439a:	f9 f0       	breq	.+62     	; 0x43da <malloc+0xb0>
    439c:	28 1b       	sub	r18, r24
    439e:	39 0b       	sbc	r19, r25
    43a0:	24 30       	cpi	r18, 0x04	; 4
    43a2:	31 05       	cpc	r19, r1
    43a4:	80 f4       	brcc	.+32     	; 0x43c6 <malloc+0x9c>
    43a6:	8a 81       	ldd	r24, Y+2	; 0x02
    43a8:	9b 81       	ldd	r25, Y+3	; 0x03
    43aa:	61 15       	cp	r22, r1
    43ac:	71 05       	cpc	r23, r1
    43ae:	21 f0       	breq	.+8      	; 0x43b8 <malloc+0x8e>
    43b0:	fb 01       	movw	r30, r22
    43b2:	93 83       	std	Z+3, r25	; 0x03
    43b4:	82 83       	std	Z+2, r24	; 0x02
    43b6:	04 c0       	rjmp	.+8      	; 0x43c0 <malloc+0x96>
    43b8:	90 93 9a 09 	sts	0x099A, r25	; 0x80099a <__flp+0x1>
    43bc:	80 93 99 09 	sts	0x0999, r24	; 0x800999 <__flp>
    43c0:	fe 01       	movw	r30, r28
    43c2:	32 96       	adiw	r30, 0x02	; 2
    43c4:	44 c0       	rjmp	.+136    	; 0x444e <malloc+0x124>
    43c6:	fe 01       	movw	r30, r28
    43c8:	e2 0f       	add	r30, r18
    43ca:	f3 1f       	adc	r31, r19
    43cc:	81 93       	st	Z+, r24
    43ce:	91 93       	st	Z+, r25
    43d0:	22 50       	subi	r18, 0x02	; 2
    43d2:	31 09       	sbc	r19, r1
    43d4:	39 83       	std	Y+1, r19	; 0x01
    43d6:	28 83       	st	Y, r18
    43d8:	3a c0       	rjmp	.+116    	; 0x444e <malloc+0x124>
    43da:	20 91 97 09 	lds	r18, 0x0997	; 0x800997 <__brkval>
    43de:	30 91 98 09 	lds	r19, 0x0998	; 0x800998 <__brkval+0x1>
    43e2:	23 2b       	or	r18, r19
    43e4:	41 f4       	brne	.+16     	; 0x43f6 <malloc+0xcc>
    43e6:	20 91 02 01 	lds	r18, 0x0102	; 0x800102 <__malloc_heap_start>
    43ea:	30 91 03 01 	lds	r19, 0x0103	; 0x800103 <__malloc_heap_start+0x1>
    43ee:	30 93 98 09 	sts	0x0998, r19	; 0x800998 <__brkval+0x1>
    43f2:	20 93 97 09 	sts	0x0997, r18	; 0x800997 <__brkval>
    43f6:	20 91 00 01 	lds	r18, 0x0100	; 0x800100 <__DATA_REGION_ORIGIN__>
    43fa:	30 91 01 01 	lds	r19, 0x0101	; 0x800101 <__DATA_REGION_ORIGIN__+0x1>
    43fe:	21 15       	cp	r18, r1
    4400:	31 05       	cpc	r19, r1
    4402:	41 f4       	brne	.+16     	; 0x4414 <malloc+0xea>
    4404:	2d b7       	in	r18, 0x3d	; 61
    4406:	3e b7       	in	r19, 0x3e	; 62
    4408:	40 91 04 01 	lds	r20, 0x0104	; 0x800104 <__malloc_margin>
    440c:	50 91 05 01 	lds	r21, 0x0105	; 0x800105 <__malloc_margin+0x1>
    4410:	24 1b       	sub	r18, r20
    4412:	35 0b       	sbc	r19, r21
    4414:	e0 91 97 09 	lds	r30, 0x0997	; 0x800997 <__brkval>
    4418:	f0 91 98 09 	lds	r31, 0x0998	; 0x800998 <__brkval+0x1>
    441c:	e2 17       	cp	r30, r18
    441e:	f3 07       	cpc	r31, r19
    4420:	a0 f4       	brcc	.+40     	; 0x444a <malloc+0x120>
    4422:	2e 1b       	sub	r18, r30
    4424:	3f 0b       	sbc	r19, r31
    4426:	28 17       	cp	r18, r24
    4428:	39 07       	cpc	r19, r25
    442a:	78 f0       	brcs	.+30     	; 0x444a <malloc+0x120>
    442c:	ac 01       	movw	r20, r24
    442e:	4e 5f       	subi	r20, 0xFE	; 254
    4430:	5f 4f       	sbci	r21, 0xFF	; 255
    4432:	24 17       	cp	r18, r20
    4434:	35 07       	cpc	r19, r21
    4436:	48 f0       	brcs	.+18     	; 0x444a <malloc+0x120>
    4438:	4e 0f       	add	r20, r30
    443a:	5f 1f       	adc	r21, r31
    443c:	50 93 98 09 	sts	0x0998, r21	; 0x800998 <__brkval+0x1>
    4440:	40 93 97 09 	sts	0x0997, r20	; 0x800997 <__brkval>
    4444:	81 93       	st	Z+, r24
    4446:	91 93       	st	Z+, r25
    4448:	02 c0       	rjmp	.+4      	; 0x444e <malloc+0x124>
    444a:	e0 e0       	ldi	r30, 0x00	; 0
    444c:	f0 e0       	ldi	r31, 0x00	; 0
    444e:	cf 01       	movw	r24, r30
    4450:	df 91       	pop	r29
    4452:	cf 91       	pop	r28
    4454:	1f 91       	pop	r17
    4456:	0f 91       	pop	r16
    4458:	08 95       	ret

0000445a <free>:
    445a:	cf 93       	push	r28
    445c:	df 93       	push	r29
    445e:	00 97       	sbiw	r24, 0x00	; 0
    4460:	09 f4       	brne	.+2      	; 0x4464 <free+0xa>
    4462:	81 c0       	rjmp	.+258    	; 0x4566 <free+0x10c>
    4464:	fc 01       	movw	r30, r24
    4466:	32 97       	sbiw	r30, 0x02	; 2
    4468:	13 82       	std	Z+3, r1	; 0x03
    446a:	12 82       	std	Z+2, r1	; 0x02
    446c:	a0 91 99 09 	lds	r26, 0x0999	; 0x800999 <__flp>
    4470:	b0 91 9a 09 	lds	r27, 0x099A	; 0x80099a <__flp+0x1>
    4474:	10 97       	sbiw	r26, 0x00	; 0
    4476:	81 f4       	brne	.+32     	; 0x4498 <free+0x3e>
    4478:	20 81       	ld	r18, Z
    447a:	31 81       	ldd	r19, Z+1	; 0x01
    447c:	82 0f       	add	r24, r18
    447e:	93 1f       	adc	r25, r19
    4480:	20 91 97 09 	lds	r18, 0x0997	; 0x800997 <__brkval>
    4484:	30 91 98 09 	lds	r19, 0x0998	; 0x800998 <__brkval+0x1>
    4488:	28 17       	cp	r18, r24
    448a:	39 07       	cpc	r19, r25
    448c:	51 f5       	brne	.+84     	; 0x44e2 <free+0x88>
    448e:	f0 93 98 09 	sts	0x0998, r31	; 0x800998 <__brkval+0x1>
    4492:	e0 93 97 09 	sts	0x0997, r30	; 0x800997 <__brkval>
    4496:	67 c0       	rjmp	.+206    	; 0x4566 <free+0x10c>
    4498:	ed 01       	movw	r28, r26
    449a:	20 e0       	ldi	r18, 0x00	; 0
    449c:	30 e0       	ldi	r19, 0x00	; 0
    449e:	ce 17       	cp	r28, r30
    44a0:	df 07       	cpc	r29, r31
    44a2:	40 f4       	brcc	.+16     	; 0x44b4 <free+0x5a>
    44a4:	4a 81       	ldd	r20, Y+2	; 0x02
    44a6:	5b 81       	ldd	r21, Y+3	; 0x03
    44a8:	9e 01       	movw	r18, r28
    44aa:	41 15       	cp	r20, r1
    44ac:	51 05       	cpc	r21, r1
    44ae:	f1 f0       	breq	.+60     	; 0x44ec <free+0x92>
    44b0:	ea 01       	movw	r28, r20
    44b2:	f5 cf       	rjmp	.-22     	; 0x449e <free+0x44>
    44b4:	d3 83       	std	Z+3, r29	; 0x03
    44b6:	c2 83       	std	Z+2, r28	; 0x02
    44b8:	40 81       	ld	r20, Z
    44ba:	51 81       	ldd	r21, Z+1	; 0x01
    44bc:	84 0f       	add	r24, r20
    44be:	95 1f       	adc	r25, r21
    44c0:	c8 17       	cp	r28, r24
    44c2:	d9 07       	cpc	r29, r25
    44c4:	59 f4       	brne	.+22     	; 0x44dc <free+0x82>
    44c6:	88 81       	ld	r24, Y
    44c8:	99 81       	ldd	r25, Y+1	; 0x01
    44ca:	84 0f       	add	r24, r20
    44cc:	95 1f       	adc	r25, r21
    44ce:	02 96       	adiw	r24, 0x02	; 2
    44d0:	91 83       	std	Z+1, r25	; 0x01
    44d2:	80 83       	st	Z, r24
    44d4:	8a 81       	ldd	r24, Y+2	; 0x02
    44d6:	9b 81       	ldd	r25, Y+3	; 0x03
    44d8:	93 83       	std	Z+3, r25	; 0x03
    44da:	82 83       	std	Z+2, r24	; 0x02
    44dc:	21 15       	cp	r18, r1
    44de:	31 05       	cpc	r19, r1
    44e0:	29 f4       	brne	.+10     	; 0x44ec <free+0x92>
    44e2:	f0 93 9a 09 	sts	0x099A, r31	; 0x80099a <__flp+0x1>
    44e6:	e0 93 99 09 	sts	0x0999, r30	; 0x800999 <__flp>
    44ea:	3d c0       	rjmp	.+122    	; 0x4566 <free+0x10c>
    44ec:	e9 01       	movw	r28, r18
    44ee:	fb 83       	std	Y+3, r31	; 0x03
    44f0:	ea 83       	std	Y+2, r30	; 0x02
    44f2:	49 91       	ld	r20, Y+
    44f4:	59 91       	ld	r21, Y+
    44f6:	c4 0f       	add	r28, r20
    44f8:	d5 1f       	adc	r29, r21
    44fa:	ec 17       	cp	r30, r28
    44fc:	fd 07       	cpc	r31, r29
    44fe:	61 f4       	brne	.+24     	; 0x4518 <free+0xbe>
    4500:	80 81       	ld	r24, Z
    4502:	91 81       	ldd	r25, Z+1	; 0x01
    4504:	84 0f       	add	r24, r20
    4506:	95 1f       	adc	r25, r21
    4508:	02 96       	adiw	r24, 0x02	; 2
    450a:	e9 01       	movw	r28, r18
    450c:	99 83       	std	Y+1, r25	; 0x01
    450e:	88 83       	st	Y, r24
    4510:	82 81       	ldd	r24, Z+2	; 0x02
    4512:	93 81       	ldd	r25, Z+3	; 0x03
    4514:	9b 83       	std	Y+3, r25	; 0x03
    4516:	8a 83       	std	Y+2, r24	; 0x02
    4518:	e0 e0       	ldi	r30, 0x00	; 0
    451a:	f0 e0       	ldi	r31, 0x00	; 0
    451c:	12 96       	adiw	r26, 0x02	; 2
    451e:	8d 91       	ld	r24, X+
    4520:	9c 91       	ld	r25, X
    4522:	13 97       	sbiw	r26, 0x03	; 3
    4524:	00 97       	sbiw	r24, 0x00	; 0
    4526:	19 f0       	breq	.+6      	; 0x452e <free+0xd4>
    4528:	fd 01       	movw	r30, r26
    452a:	dc 01       	movw	r26, r24
    452c:	f7 cf       	rjmp	.-18     	; 0x451c <free+0xc2>
    452e:	8d 91       	ld	r24, X+
    4530:	9c 91       	ld	r25, X
    4532:	11 97       	sbiw	r26, 0x01	; 1
    4534:	9d 01       	movw	r18, r26
    4536:	2e 5f       	subi	r18, 0xFE	; 254
    4538:	3f 4f       	sbci	r19, 0xFF	; 255
    453a:	82 0f       	add	r24, r18
    453c:	93 1f       	adc	r25, r19
    453e:	20 91 97 09 	lds	r18, 0x0997	; 0x800997 <__brkval>
    4542:	30 91 98 09 	lds	r19, 0x0998	; 0x800998 <__brkval+0x1>
    4546:	28 17       	cp	r18, r24
    4548:	39 07       	cpc	r19, r25
    454a:	69 f4       	brne	.+26     	; 0x4566 <free+0x10c>
    454c:	30 97       	sbiw	r30, 0x00	; 0
    454e:	29 f4       	brne	.+10     	; 0x455a <free+0x100>
    4550:	10 92 9a 09 	sts	0x099A, r1	; 0x80099a <__flp+0x1>
    4554:	10 92 99 09 	sts	0x0999, r1	; 0x800999 <__flp>
    4558:	02 c0       	rjmp	.+4      	; 0x455e <free+0x104>
    455a:	13 82       	std	Z+3, r1	; 0x03
    455c:	12 82       	std	Z+2, r1	; 0x02
    455e:	b0 93 98 09 	sts	0x0998, r27	; 0x800998 <__brkval+0x1>
    4562:	a0 93 97 09 	sts	0x0997, r26	; 0x800997 <__brkval>
    4566:	df 91       	pop	r29
    4568:	cf 91       	pop	r28
    456a:	08 95       	ret

0000456c <do_rand>:
    456c:	8f 92       	push	r8
    456e:	9f 92       	push	r9
    4570:	af 92       	push	r10
    4572:	bf 92       	push	r11
    4574:	cf 92       	push	r12
    4576:	df 92       	push	r13
    4578:	ef 92       	push	r14
    457a:	ff 92       	push	r15
    457c:	cf 93       	push	r28
    457e:	df 93       	push	r29
    4580:	ec 01       	movw	r28, r24
    4582:	68 81       	ld	r22, Y
    4584:	79 81       	ldd	r23, Y+1	; 0x01
    4586:	8a 81       	ldd	r24, Y+2	; 0x02
    4588:	9b 81       	ldd	r25, Y+3	; 0x03
    458a:	61 15       	cp	r22, r1
    458c:	71 05       	cpc	r23, r1
    458e:	81 05       	cpc	r24, r1
    4590:	91 05       	cpc	r25, r1
    4592:	21 f4       	brne	.+8      	; 0x459c <do_rand+0x30>
    4594:	64 e2       	ldi	r22, 0x24	; 36
    4596:	79 ed       	ldi	r23, 0xD9	; 217
    4598:	8b e5       	ldi	r24, 0x5B	; 91
    459a:	97 e0       	ldi	r25, 0x07	; 7
    459c:	2d e1       	ldi	r18, 0x1D	; 29
    459e:	33 ef       	ldi	r19, 0xF3	; 243
    45a0:	41 e0       	ldi	r20, 0x01	; 1
    45a2:	50 e0       	ldi	r21, 0x00	; 0
    45a4:	8b d3       	rcall	.+1814   	; 0x4cbc <__divmodsi4>
    45a6:	49 01       	movw	r8, r18
    45a8:	5a 01       	movw	r10, r20
    45aa:	9b 01       	movw	r18, r22
    45ac:	ac 01       	movw	r20, r24
    45ae:	a7 ea       	ldi	r26, 0xA7	; 167
    45b0:	b1 e4       	ldi	r27, 0x41	; 65
    45b2:	b1 de       	rcall	.-670    	; 0x4316 <__muluhisi3>
    45b4:	6b 01       	movw	r12, r22
    45b6:	7c 01       	movw	r14, r24
    45b8:	ac ee       	ldi	r26, 0xEC	; 236
    45ba:	b4 ef       	ldi	r27, 0xF4	; 244
    45bc:	a5 01       	movw	r20, r10
    45be:	94 01       	movw	r18, r8
    45c0:	9b d3       	rcall	.+1846   	; 0x4cf8 <__mulohisi3>
    45c2:	dc 01       	movw	r26, r24
    45c4:	cb 01       	movw	r24, r22
    45c6:	8c 0d       	add	r24, r12
    45c8:	9d 1d       	adc	r25, r13
    45ca:	ae 1d       	adc	r26, r14
    45cc:	bf 1d       	adc	r27, r15
    45ce:	b7 ff       	sbrs	r27, 7
    45d0:	03 c0       	rjmp	.+6      	; 0x45d8 <do_rand+0x6c>
    45d2:	01 97       	sbiw	r24, 0x01	; 1
    45d4:	a1 09       	sbc	r26, r1
    45d6:	b0 48       	sbci	r27, 0x80	; 128
    45d8:	88 83       	st	Y, r24
    45da:	99 83       	std	Y+1, r25	; 0x01
    45dc:	aa 83       	std	Y+2, r26	; 0x02
    45de:	bb 83       	std	Y+3, r27	; 0x03
    45e0:	9f 77       	andi	r25, 0x7F	; 127
    45e2:	df 91       	pop	r29
    45e4:	cf 91       	pop	r28
    45e6:	ff 90       	pop	r15
    45e8:	ef 90       	pop	r14
    45ea:	df 90       	pop	r13
    45ec:	cf 90       	pop	r12
    45ee:	bf 90       	pop	r11
    45f0:	af 90       	pop	r10
    45f2:	9f 90       	pop	r9
    45f4:	8f 90       	pop	r8
    45f6:	08 95       	ret

000045f8 <rand_r>:
    45f8:	b9 cf       	rjmp	.-142    	; 0x456c <do_rand>

000045fa <rand>:
    45fa:	86 e0       	ldi	r24, 0x06	; 6
    45fc:	91 e0       	ldi	r25, 0x01	; 1
    45fe:	b6 cf       	rjmp	.-148    	; 0x456c <do_rand>

00004600 <srand>:
    4600:	a0 e0       	ldi	r26, 0x00	; 0
    4602:	b0 e0       	ldi	r27, 0x00	; 0
    4604:	80 93 06 01 	sts	0x0106, r24	; 0x800106 <next>
    4608:	90 93 07 01 	sts	0x0107, r25	; 0x800107 <next+0x1>
    460c:	a0 93 08 01 	sts	0x0108, r26	; 0x800108 <next+0x2>
    4610:	b0 93 09 01 	sts	0x0109, r27	; 0x800109 <next+0x3>
    4614:	08 95       	ret

00004616 <abort>:
    4616:	81 e0       	ldi	r24, 0x01	; 1
    4618:	90 e0       	ldi	r25, 0x00	; 0
    461a:	f8 94       	cli
    461c:	71 c3       	rjmp	.+1762   	; 0x4d00 <_exit>

0000461e <memcmp>:
    461e:	fb 01       	movw	r30, r22
    4620:	dc 01       	movw	r26, r24
    4622:	04 c0       	rjmp	.+8      	; 0x462c <memcmp+0xe>
    4624:	8d 91       	ld	r24, X+
    4626:	01 90       	ld	r0, Z+
    4628:	80 19       	sub	r24, r0
    462a:	21 f4       	brne	.+8      	; 0x4634 <memcmp+0x16>
    462c:	41 50       	subi	r20, 0x01	; 1
    462e:	50 40       	sbci	r21, 0x00	; 0
    4630:	c8 f7       	brcc	.-14     	; 0x4624 <memcmp+0x6>
    4632:	88 1b       	sub	r24, r24
    4634:	99 0b       	sbc	r25, r25
    4636:	08 95       	ret

00004638 <memcpy>:
    4638:	fb 01       	movw	r30, r22
    463a:	dc 01       	movw	r26, r24
    463c:	02 c0       	rjmp	.+4      	; 0x4642 <memcpy+0xa>
    463e:	01 90       	ld	r0, Z+
    4640:	0d 92       	st	X+, r0
    4642:	41 50       	subi	r20, 0x01	; 1
    4644:	50 40       	sbci	r21, 0x00	; 0
    4646:	d8 f7       	brcc	.-10     	; 0x463e <memcpy+0x6>
    4648:	08 95       	ret

0000464a <memset>:
    464a:	dc 01       	movw	r26, r24
    464c:	01 c0       	rjmp	.+2      	; 0x4650 <memset+0x6>
    464e:	6d 93       	st	X+, r22
    4650:	41 50       	subi	r20, 0x01	; 1
    4652:	50 40       	sbci	r21, 0x00	; 0
    4654:	e0 f7       	brcc	.-8      	; 0x464e <memset+0x4>
    4656:	08 95       	ret

00004658 <__itoa_ncheck>:
    4658:	bb 27       	eor	r27, r27
    465a:	4a 30       	cpi	r20, 0x0A	; 10
    465c:	31 f4       	brne	.+12     	; 0x466a <__itoa_ncheck+0x12>
    465e:	99 23       	and	r25, r25
    4660:	22 f4       	brpl	.+8      	; 0x466a <__itoa_ncheck+0x12>
    4662:	bd e2       	ldi	r27, 0x2D	; 45
    4664:	90 95       	com	r25
    4666:	81 95       	neg	r24
    4668:	9f 4f       	sbci	r25, 0xFF	; 255
    466a:	01 c0       	rjmp	.+2      	; 0x466e <__utoa_common>

0000466c <__utoa_ncheck>:
    466c:	bb 27       	eor	r27, r27

0000466e <__utoa_common>:
    466e:	fb 01       	movw	r30, r22
    4670:	55 27       	eor	r21, r21
    4672:	aa 27       	eor	r26, r26
    4674:	88 0f       	add	r24, r24
    4676:	99 1f       	adc	r25, r25
    4678:	aa 1f       	adc	r26, r26
    467a:	a4 17       	cp	r26, r20
    467c:	10 f0       	brcs	.+4      	; 0x4682 <__utoa_common+0x14>
    467e:	a4 1b       	sub	r26, r20
    4680:	83 95       	inc	r24
    4682:	50 51       	subi	r21, 0x10	; 16
    4684:	b9 f7       	brne	.-18     	; 0x4674 <__utoa_common+0x6>
    4686:	a0 5d       	subi	r26, 0xD0	; 208
    4688:	aa 33       	cpi	r26, 0x3A	; 58
    468a:	08 f0       	brcs	.+2      	; 0x468e <__utoa_common+0x20>
    468c:	a9 5d       	subi	r26, 0xD9	; 217
    468e:	a1 93       	st	Z+, r26
    4690:	00 97       	sbiw	r24, 0x00	; 0
    4692:	79 f7       	brne	.-34     	; 0x4672 <__utoa_common+0x4>
    4694:	b1 11       	cpse	r27, r1
    4696:	b1 93       	st	Z+, r27
    4698:	11 92       	st	Z+, r1
    469a:	cb 01       	movw	r24, r22
    469c:	4b c2       	rjmp	.+1174   	; 0x4b34 <strrev>

0000469e <vsnprintf>:
    469e:	0f 93       	push	r16
    46a0:	1f 93       	push	r17
    46a2:	cf 93       	push	r28
    46a4:	df 93       	push	r29
    46a6:	cd b7       	in	r28, 0x3d	; 61
    46a8:	de b7       	in	r29, 0x3e	; 62
    46aa:	2e 97       	sbiw	r28, 0x0e	; 14
    46ac:	0f b6       	in	r0, 0x3f	; 63
    46ae:	f8 94       	cli
    46b0:	de bf       	out	0x3e, r29	; 62
    46b2:	0f be       	out	0x3f, r0	; 63
    46b4:	cd bf       	out	0x3d, r28	; 61
    46b6:	8c 01       	movw	r16, r24
    46b8:	fa 01       	movw	r30, r20
    46ba:	86 e0       	ldi	r24, 0x06	; 6
    46bc:	8c 83       	std	Y+4, r24	; 0x04
    46be:	1a 83       	std	Y+2, r17	; 0x02
    46c0:	09 83       	std	Y+1, r16	; 0x01
    46c2:	77 ff       	sbrs	r23, 7
    46c4:	02 c0       	rjmp	.+4      	; 0x46ca <vsnprintf+0x2c>
    46c6:	60 e0       	ldi	r22, 0x00	; 0
    46c8:	70 e8       	ldi	r23, 0x80	; 128
    46ca:	cb 01       	movw	r24, r22
    46cc:	01 97       	sbiw	r24, 0x01	; 1
    46ce:	9e 83       	std	Y+6, r25	; 0x06
    46d0:	8d 83       	std	Y+5, r24	; 0x05
    46d2:	a9 01       	movw	r20, r18
    46d4:	bf 01       	movw	r22, r30
    46d6:	ce 01       	movw	r24, r28
    46d8:	01 96       	adiw	r24, 0x01	; 1
    46da:	19 d0       	rcall	.+50     	; 0x470e <vfprintf>
    46dc:	4d 81       	ldd	r20, Y+5	; 0x05
    46de:	5e 81       	ldd	r21, Y+6	; 0x06
    46e0:	57 fd       	sbrc	r21, 7
    46e2:	0a c0       	rjmp	.+20     	; 0x46f8 <vsnprintf+0x5a>
    46e4:	2f 81       	ldd	r18, Y+7	; 0x07
    46e6:	38 85       	ldd	r19, Y+8	; 0x08
    46e8:	42 17       	cp	r20, r18
    46ea:	53 07       	cpc	r21, r19
    46ec:	0c f4       	brge	.+2      	; 0x46f0 <vsnprintf+0x52>
    46ee:	9a 01       	movw	r18, r20
    46f0:	f8 01       	movw	r30, r16
    46f2:	e2 0f       	add	r30, r18
    46f4:	f3 1f       	adc	r31, r19
    46f6:	10 82       	st	Z, r1
    46f8:	2e 96       	adiw	r28, 0x0e	; 14
    46fa:	0f b6       	in	r0, 0x3f	; 63
    46fc:	f8 94       	cli
    46fe:	de bf       	out	0x3e, r29	; 62
    4700:	0f be       	out	0x3f, r0	; 63
    4702:	cd bf       	out	0x3d, r28	; 61
    4704:	df 91       	pop	r29
    4706:	cf 91       	pop	r28
    4708:	1f 91       	pop	r17
    470a:	0f 91       	pop	r16
    470c:	08 95       	ret

0000470e <vfprintf>:
    470e:	2f 92       	push	r2
    4710:	3f 92       	push	r3
    4712:	4f 92       	push	r4
    4714:	5f 92       	push	r5
    4716:	6f 92       	push	r6
    4718:	7f 92       	push	r7
    471a:	8f 92       	push	r8
    471c:	9f 92       	push	r9
    471e:	af 92       	push	r10
    4720:	bf 92       	push	r11
    4722:	cf 92       	push	r12
    4724:	df 92       	push	r13
    4726:	ef 92       	push	r14
    4728:	ff 92       	push	r15
    472a:	0f 93       	push	r16
    472c:	1f 93       	push	r17
    472e:	cf 93       	push	r28
    4730:	df 93       	push	r29
    4732:	cd b7       	in	r28, 0x3d	; 61
    4734:	de b7       	in	r29, 0x3e	; 62
    4736:	2b 97       	sbiw	r28, 0x0b	; 11
    4738:	0f b6       	in	r0, 0x3f	; 63
    473a:	f8 94       	cli
    473c:	de bf       	out	0x3e, r29	; 62
    473e:	0f be       	out	0x3f, r0	; 63
    4740:	cd bf       	out	0x3d, r28	; 61
    4742:	6c 01       	movw	r12, r24
    4744:	7b 01       	movw	r14, r22
    4746:	8a 01       	movw	r16, r20
    4748:	fc 01       	movw	r30, r24
    474a:	17 82       	std	Z+7, r1	; 0x07
    474c:	16 82       	std	Z+6, r1	; 0x06
    474e:	83 81       	ldd	r24, Z+3	; 0x03
    4750:	81 ff       	sbrs	r24, 1
    4752:	bf c1       	rjmp	.+894    	; 0x4ad2 <vfprintf+0x3c4>
    4754:	ce 01       	movw	r24, r28
    4756:	01 96       	adiw	r24, 0x01	; 1
    4758:	3c 01       	movw	r6, r24
    475a:	f6 01       	movw	r30, r12
    475c:	93 81       	ldd	r25, Z+3	; 0x03
    475e:	f7 01       	movw	r30, r14
    4760:	93 fd       	sbrc	r25, 3
    4762:	85 91       	lpm	r24, Z+
    4764:	93 ff       	sbrs	r25, 3
    4766:	81 91       	ld	r24, Z+
    4768:	7f 01       	movw	r14, r30
    476a:	88 23       	and	r24, r24
    476c:	09 f4       	brne	.+2      	; 0x4770 <vfprintf+0x62>
    476e:	ad c1       	rjmp	.+858    	; 0x4aca <vfprintf+0x3bc>
    4770:	85 32       	cpi	r24, 0x25	; 37
    4772:	39 f4       	brne	.+14     	; 0x4782 <vfprintf+0x74>
    4774:	93 fd       	sbrc	r25, 3
    4776:	85 91       	lpm	r24, Z+
    4778:	93 ff       	sbrs	r25, 3
    477a:	81 91       	ld	r24, Z+
    477c:	7f 01       	movw	r14, r30
    477e:	85 32       	cpi	r24, 0x25	; 37
    4780:	21 f4       	brne	.+8      	; 0x478a <vfprintf+0x7c>
    4782:	b6 01       	movw	r22, r12
    4784:	90 e0       	ldi	r25, 0x00	; 0
    4786:	e6 d1       	rcall	.+972    	; 0x4b54 <fputc>
    4788:	e8 cf       	rjmp	.-48     	; 0x475a <vfprintf+0x4c>
    478a:	91 2c       	mov	r9, r1
    478c:	21 2c       	mov	r2, r1
    478e:	31 2c       	mov	r3, r1
    4790:	ff e1       	ldi	r31, 0x1F	; 31
    4792:	f3 15       	cp	r31, r3
    4794:	d8 f0       	brcs	.+54     	; 0x47cc <vfprintf+0xbe>
    4796:	8b 32       	cpi	r24, 0x2B	; 43
    4798:	79 f0       	breq	.+30     	; 0x47b8 <vfprintf+0xaa>
    479a:	38 f4       	brcc	.+14     	; 0x47aa <vfprintf+0x9c>
    479c:	80 32       	cpi	r24, 0x20	; 32
    479e:	79 f0       	breq	.+30     	; 0x47be <vfprintf+0xb0>
    47a0:	83 32       	cpi	r24, 0x23	; 35
    47a2:	a1 f4       	brne	.+40     	; 0x47cc <vfprintf+0xbe>
    47a4:	23 2d       	mov	r18, r3
    47a6:	20 61       	ori	r18, 0x10	; 16
    47a8:	1d c0       	rjmp	.+58     	; 0x47e4 <vfprintf+0xd6>
    47aa:	8d 32       	cpi	r24, 0x2D	; 45
    47ac:	61 f0       	breq	.+24     	; 0x47c6 <vfprintf+0xb8>
    47ae:	80 33       	cpi	r24, 0x30	; 48
    47b0:	69 f4       	brne	.+26     	; 0x47cc <vfprintf+0xbe>
    47b2:	23 2d       	mov	r18, r3
    47b4:	21 60       	ori	r18, 0x01	; 1
    47b6:	16 c0       	rjmp	.+44     	; 0x47e4 <vfprintf+0xd6>
    47b8:	83 2d       	mov	r24, r3
    47ba:	82 60       	ori	r24, 0x02	; 2
    47bc:	38 2e       	mov	r3, r24
    47be:	e3 2d       	mov	r30, r3
    47c0:	e4 60       	ori	r30, 0x04	; 4
    47c2:	3e 2e       	mov	r3, r30
    47c4:	2a c0       	rjmp	.+84     	; 0x481a <vfprintf+0x10c>
    47c6:	f3 2d       	mov	r31, r3
    47c8:	f8 60       	ori	r31, 0x08	; 8
    47ca:	1d c0       	rjmp	.+58     	; 0x4806 <vfprintf+0xf8>
    47cc:	37 fc       	sbrc	r3, 7
    47ce:	2d c0       	rjmp	.+90     	; 0x482a <vfprintf+0x11c>
    47d0:	20 ed       	ldi	r18, 0xD0	; 208
    47d2:	28 0f       	add	r18, r24
    47d4:	2a 30       	cpi	r18, 0x0A	; 10
    47d6:	40 f0       	brcs	.+16     	; 0x47e8 <vfprintf+0xda>
    47d8:	8e 32       	cpi	r24, 0x2E	; 46
    47da:	b9 f4       	brne	.+46     	; 0x480a <vfprintf+0xfc>
    47dc:	36 fc       	sbrc	r3, 6
    47de:	75 c1       	rjmp	.+746    	; 0x4aca <vfprintf+0x3bc>
    47e0:	23 2d       	mov	r18, r3
    47e2:	20 64       	ori	r18, 0x40	; 64
    47e4:	32 2e       	mov	r3, r18
    47e6:	19 c0       	rjmp	.+50     	; 0x481a <vfprintf+0x10c>
    47e8:	36 fe       	sbrs	r3, 6
    47ea:	06 c0       	rjmp	.+12     	; 0x47f8 <vfprintf+0xea>
    47ec:	8a e0       	ldi	r24, 0x0A	; 10
    47ee:	98 9e       	mul	r9, r24
    47f0:	20 0d       	add	r18, r0
    47f2:	11 24       	eor	r1, r1
    47f4:	92 2e       	mov	r9, r18
    47f6:	11 c0       	rjmp	.+34     	; 0x481a <vfprintf+0x10c>
    47f8:	ea e0       	ldi	r30, 0x0A	; 10
    47fa:	2e 9e       	mul	r2, r30
    47fc:	20 0d       	add	r18, r0
    47fe:	11 24       	eor	r1, r1
    4800:	22 2e       	mov	r2, r18
    4802:	f3 2d       	mov	r31, r3
    4804:	f0 62       	ori	r31, 0x20	; 32
    4806:	3f 2e       	mov	r3, r31
    4808:	08 c0       	rjmp	.+16     	; 0x481a <vfprintf+0x10c>
    480a:	8c 36       	cpi	r24, 0x6C	; 108
    480c:	21 f4       	brne	.+8      	; 0x4816 <vfprintf+0x108>
    480e:	83 2d       	mov	r24, r3
    4810:	80 68       	ori	r24, 0x80	; 128
    4812:	38 2e       	mov	r3, r24
    4814:	02 c0       	rjmp	.+4      	; 0x481a <vfprintf+0x10c>
    4816:	88 36       	cpi	r24, 0x68	; 104
    4818:	41 f4       	brne	.+16     	; 0x482a <vfprintf+0x11c>
    481a:	f7 01       	movw	r30, r14
    481c:	93 fd       	sbrc	r25, 3
    481e:	85 91       	lpm	r24, Z+
    4820:	93 ff       	sbrs	r25, 3
    4822:	81 91       	ld	r24, Z+
    4824:	7f 01       	movw	r14, r30
    4826:	81 11       	cpse	r24, r1
    4828:	b3 cf       	rjmp	.-154    	; 0x4790 <vfprintf+0x82>
    482a:	98 2f       	mov	r25, r24
    482c:	9f 7d       	andi	r25, 0xDF	; 223
    482e:	95 54       	subi	r25, 0x45	; 69
    4830:	93 30       	cpi	r25, 0x03	; 3
    4832:	28 f4       	brcc	.+10     	; 0x483e <vfprintf+0x130>
    4834:	0c 5f       	subi	r16, 0xFC	; 252
    4836:	1f 4f       	sbci	r17, 0xFF	; 255
    4838:	9f e3       	ldi	r25, 0x3F	; 63
    483a:	99 83       	std	Y+1, r25	; 0x01
    483c:	0d c0       	rjmp	.+26     	; 0x4858 <vfprintf+0x14a>
    483e:	83 36       	cpi	r24, 0x63	; 99
    4840:	31 f0       	breq	.+12     	; 0x484e <vfprintf+0x140>
    4842:	83 37       	cpi	r24, 0x73	; 115
    4844:	71 f0       	breq	.+28     	; 0x4862 <vfprintf+0x154>
    4846:	83 35       	cpi	r24, 0x53	; 83
    4848:	09 f0       	breq	.+2      	; 0x484c <vfprintf+0x13e>
    484a:	55 c0       	rjmp	.+170    	; 0x48f6 <vfprintf+0x1e8>
    484c:	20 c0       	rjmp	.+64     	; 0x488e <vfprintf+0x180>
    484e:	f8 01       	movw	r30, r16
    4850:	80 81       	ld	r24, Z
    4852:	89 83       	std	Y+1, r24	; 0x01
    4854:	0e 5f       	subi	r16, 0xFE	; 254
    4856:	1f 4f       	sbci	r17, 0xFF	; 255
    4858:	88 24       	eor	r8, r8
    485a:	83 94       	inc	r8
    485c:	91 2c       	mov	r9, r1
    485e:	53 01       	movw	r10, r6
    4860:	12 c0       	rjmp	.+36     	; 0x4886 <vfprintf+0x178>
    4862:	28 01       	movw	r4, r16
    4864:	f2 e0       	ldi	r31, 0x02	; 2
    4866:	4f 0e       	add	r4, r31
    4868:	51 1c       	adc	r5, r1
    486a:	f8 01       	movw	r30, r16
    486c:	a0 80       	ld	r10, Z
    486e:	b1 80       	ldd	r11, Z+1	; 0x01
    4870:	36 fe       	sbrs	r3, 6
    4872:	03 c0       	rjmp	.+6      	; 0x487a <vfprintf+0x16c>
    4874:	69 2d       	mov	r22, r9
    4876:	70 e0       	ldi	r23, 0x00	; 0
    4878:	02 c0       	rjmp	.+4      	; 0x487e <vfprintf+0x170>
    487a:	6f ef       	ldi	r22, 0xFF	; 255
    487c:	7f ef       	ldi	r23, 0xFF	; 255
    487e:	c5 01       	movw	r24, r10
    4880:	4e d1       	rcall	.+668    	; 0x4b1e <strnlen>
    4882:	4c 01       	movw	r8, r24
    4884:	82 01       	movw	r16, r4
    4886:	f3 2d       	mov	r31, r3
    4888:	ff 77       	andi	r31, 0x7F	; 127
    488a:	3f 2e       	mov	r3, r31
    488c:	15 c0       	rjmp	.+42     	; 0x48b8 <vfprintf+0x1aa>
    488e:	28 01       	movw	r4, r16
    4890:	22 e0       	ldi	r18, 0x02	; 2
    4892:	42 0e       	add	r4, r18
    4894:	51 1c       	adc	r5, r1
    4896:	f8 01       	movw	r30, r16
    4898:	a0 80       	ld	r10, Z
    489a:	b1 80       	ldd	r11, Z+1	; 0x01
    489c:	36 fe       	sbrs	r3, 6
    489e:	03 c0       	rjmp	.+6      	; 0x48a6 <vfprintf+0x198>
    48a0:	69 2d       	mov	r22, r9
    48a2:	70 e0       	ldi	r23, 0x00	; 0
    48a4:	02 c0       	rjmp	.+4      	; 0x48aa <vfprintf+0x19c>
    48a6:	6f ef       	ldi	r22, 0xFF	; 255
    48a8:	7f ef       	ldi	r23, 0xFF	; 255
    48aa:	c5 01       	movw	r24, r10
    48ac:	2d d1       	rcall	.+602    	; 0x4b08 <strnlen_P>
    48ae:	4c 01       	movw	r8, r24
    48b0:	f3 2d       	mov	r31, r3
    48b2:	f0 68       	ori	r31, 0x80	; 128
    48b4:	3f 2e       	mov	r3, r31
    48b6:	82 01       	movw	r16, r4
    48b8:	33 fc       	sbrc	r3, 3
    48ba:	19 c0       	rjmp	.+50     	; 0x48ee <vfprintf+0x1e0>
    48bc:	82 2d       	mov	r24, r2
    48be:	90 e0       	ldi	r25, 0x00	; 0
    48c0:	88 16       	cp	r8, r24
    48c2:	99 06       	cpc	r9, r25
    48c4:	a0 f4       	brcc	.+40     	; 0x48ee <vfprintf+0x1e0>
    48c6:	b6 01       	movw	r22, r12
    48c8:	80 e2       	ldi	r24, 0x20	; 32
    48ca:	90 e0       	ldi	r25, 0x00	; 0
    48cc:	43 d1       	rcall	.+646    	; 0x4b54 <fputc>
    48ce:	2a 94       	dec	r2
    48d0:	f5 cf       	rjmp	.-22     	; 0x48bc <vfprintf+0x1ae>
    48d2:	f5 01       	movw	r30, r10
    48d4:	37 fc       	sbrc	r3, 7
    48d6:	85 91       	lpm	r24, Z+
    48d8:	37 fe       	sbrs	r3, 7
    48da:	81 91       	ld	r24, Z+
    48dc:	5f 01       	movw	r10, r30
    48de:	b6 01       	movw	r22, r12
    48e0:	90 e0       	ldi	r25, 0x00	; 0
    48e2:	38 d1       	rcall	.+624    	; 0x4b54 <fputc>
    48e4:	21 10       	cpse	r2, r1
    48e6:	2a 94       	dec	r2
    48e8:	21 e0       	ldi	r18, 0x01	; 1
    48ea:	82 1a       	sub	r8, r18
    48ec:	91 08       	sbc	r9, r1
    48ee:	81 14       	cp	r8, r1
    48f0:	91 04       	cpc	r9, r1
    48f2:	79 f7       	brne	.-34     	; 0x48d2 <vfprintf+0x1c4>
    48f4:	e1 c0       	rjmp	.+450    	; 0x4ab8 <vfprintf+0x3aa>
    48f6:	84 36       	cpi	r24, 0x64	; 100
    48f8:	11 f0       	breq	.+4      	; 0x48fe <vfprintf+0x1f0>
    48fa:	89 36       	cpi	r24, 0x69	; 105
    48fc:	39 f5       	brne	.+78     	; 0x494c <vfprintf+0x23e>
    48fe:	f8 01       	movw	r30, r16
    4900:	37 fe       	sbrs	r3, 7
    4902:	07 c0       	rjmp	.+14     	; 0x4912 <vfprintf+0x204>
    4904:	60 81       	ld	r22, Z
    4906:	71 81       	ldd	r23, Z+1	; 0x01
    4908:	82 81       	ldd	r24, Z+2	; 0x02
    490a:	93 81       	ldd	r25, Z+3	; 0x03
    490c:	0c 5f       	subi	r16, 0xFC	; 252
    490e:	1f 4f       	sbci	r17, 0xFF	; 255
    4910:	08 c0       	rjmp	.+16     	; 0x4922 <vfprintf+0x214>
    4912:	60 81       	ld	r22, Z
    4914:	71 81       	ldd	r23, Z+1	; 0x01
    4916:	07 2e       	mov	r0, r23
    4918:	00 0c       	add	r0, r0
    491a:	88 0b       	sbc	r24, r24
    491c:	99 0b       	sbc	r25, r25
    491e:	0e 5f       	subi	r16, 0xFE	; 254
    4920:	1f 4f       	sbci	r17, 0xFF	; 255
    4922:	f3 2d       	mov	r31, r3
    4924:	ff 76       	andi	r31, 0x6F	; 111
    4926:	3f 2e       	mov	r3, r31
    4928:	97 ff       	sbrs	r25, 7
    492a:	09 c0       	rjmp	.+18     	; 0x493e <vfprintf+0x230>
    492c:	90 95       	com	r25
    492e:	80 95       	com	r24
    4930:	70 95       	com	r23
    4932:	61 95       	neg	r22
    4934:	7f 4f       	sbci	r23, 0xFF	; 255
    4936:	8f 4f       	sbci	r24, 0xFF	; 255
    4938:	9f 4f       	sbci	r25, 0xFF	; 255
    493a:	f0 68       	ori	r31, 0x80	; 128
    493c:	3f 2e       	mov	r3, r31
    493e:	2a e0       	ldi	r18, 0x0A	; 10
    4940:	30 e0       	ldi	r19, 0x00	; 0
    4942:	a3 01       	movw	r20, r6
    4944:	43 d1       	rcall	.+646    	; 0x4bcc <__ultoa_invert>
    4946:	88 2e       	mov	r8, r24
    4948:	86 18       	sub	r8, r6
    494a:	44 c0       	rjmp	.+136    	; 0x49d4 <vfprintf+0x2c6>
    494c:	85 37       	cpi	r24, 0x75	; 117
    494e:	31 f4       	brne	.+12     	; 0x495c <vfprintf+0x24e>
    4950:	23 2d       	mov	r18, r3
    4952:	2f 7e       	andi	r18, 0xEF	; 239
    4954:	b2 2e       	mov	r11, r18
    4956:	2a e0       	ldi	r18, 0x0A	; 10
    4958:	30 e0       	ldi	r19, 0x00	; 0
    495a:	25 c0       	rjmp	.+74     	; 0x49a6 <vfprintf+0x298>
    495c:	93 2d       	mov	r25, r3
    495e:	99 7f       	andi	r25, 0xF9	; 249
    4960:	b9 2e       	mov	r11, r25
    4962:	8f 36       	cpi	r24, 0x6F	; 111
    4964:	c1 f0       	breq	.+48     	; 0x4996 <vfprintf+0x288>
    4966:	18 f4       	brcc	.+6      	; 0x496e <vfprintf+0x260>
    4968:	88 35       	cpi	r24, 0x58	; 88
    496a:	79 f0       	breq	.+30     	; 0x498a <vfprintf+0x27c>
    496c:	ae c0       	rjmp	.+348    	; 0x4aca <vfprintf+0x3bc>
    496e:	80 37       	cpi	r24, 0x70	; 112
    4970:	19 f0       	breq	.+6      	; 0x4978 <vfprintf+0x26a>
    4972:	88 37       	cpi	r24, 0x78	; 120
    4974:	21 f0       	breq	.+8      	; 0x497e <vfprintf+0x270>
    4976:	a9 c0       	rjmp	.+338    	; 0x4aca <vfprintf+0x3bc>
    4978:	e9 2f       	mov	r30, r25
    497a:	e0 61       	ori	r30, 0x10	; 16
    497c:	be 2e       	mov	r11, r30
    497e:	b4 fe       	sbrs	r11, 4
    4980:	0d c0       	rjmp	.+26     	; 0x499c <vfprintf+0x28e>
    4982:	fb 2d       	mov	r31, r11
    4984:	f4 60       	ori	r31, 0x04	; 4
    4986:	bf 2e       	mov	r11, r31
    4988:	09 c0       	rjmp	.+18     	; 0x499c <vfprintf+0x28e>
    498a:	34 fe       	sbrs	r3, 4
    498c:	0a c0       	rjmp	.+20     	; 0x49a2 <vfprintf+0x294>
    498e:	29 2f       	mov	r18, r25
    4990:	26 60       	ori	r18, 0x06	; 6
    4992:	b2 2e       	mov	r11, r18
    4994:	06 c0       	rjmp	.+12     	; 0x49a2 <vfprintf+0x294>
    4996:	28 e0       	ldi	r18, 0x08	; 8
    4998:	30 e0       	ldi	r19, 0x00	; 0
    499a:	05 c0       	rjmp	.+10     	; 0x49a6 <vfprintf+0x298>
    499c:	20 e1       	ldi	r18, 0x10	; 16
    499e:	30 e0       	ldi	r19, 0x00	; 0
    49a0:	02 c0       	rjmp	.+4      	; 0x49a6 <vfprintf+0x298>
    49a2:	20 e1       	ldi	r18, 0x10	; 16
    49a4:	32 e0       	ldi	r19, 0x02	; 2
    49a6:	f8 01       	movw	r30, r16
    49a8:	b7 fe       	sbrs	r11, 7
    49aa:	07 c0       	rjmp	.+14     	; 0x49ba <vfprintf+0x2ac>
    49ac:	60 81       	ld	r22, Z
    49ae:	71 81       	ldd	r23, Z+1	; 0x01
    49b0:	82 81       	ldd	r24, Z+2	; 0x02
    49b2:	93 81       	ldd	r25, Z+3	; 0x03
    49b4:	0c 5f       	subi	r16, 0xFC	; 252
    49b6:	1f 4f       	sbci	r17, 0xFF	; 255
    49b8:	06 c0       	rjmp	.+12     	; 0x49c6 <vfprintf+0x2b8>
    49ba:	60 81       	ld	r22, Z
    49bc:	71 81       	ldd	r23, Z+1	; 0x01
    49be:	80 e0       	ldi	r24, 0x00	; 0
    49c0:	90 e0       	ldi	r25, 0x00	; 0
    49c2:	0e 5f       	subi	r16, 0xFE	; 254
    49c4:	1f 4f       	sbci	r17, 0xFF	; 255
    49c6:	a3 01       	movw	r20, r6
    49c8:	01 d1       	rcall	.+514    	; 0x4bcc <__ultoa_invert>
    49ca:	88 2e       	mov	r8, r24
    49cc:	86 18       	sub	r8, r6
    49ce:	fb 2d       	mov	r31, r11
    49d0:	ff 77       	andi	r31, 0x7F	; 127
    49d2:	3f 2e       	mov	r3, r31
    49d4:	36 fe       	sbrs	r3, 6
    49d6:	0d c0       	rjmp	.+26     	; 0x49f2 <vfprintf+0x2e4>
    49d8:	23 2d       	mov	r18, r3
    49da:	2e 7f       	andi	r18, 0xFE	; 254
    49dc:	a2 2e       	mov	r10, r18
    49de:	89 14       	cp	r8, r9
    49e0:	58 f4       	brcc	.+22     	; 0x49f8 <vfprintf+0x2ea>
    49e2:	34 fe       	sbrs	r3, 4
    49e4:	0b c0       	rjmp	.+22     	; 0x49fc <vfprintf+0x2ee>
    49e6:	32 fc       	sbrc	r3, 2
    49e8:	09 c0       	rjmp	.+18     	; 0x49fc <vfprintf+0x2ee>
    49ea:	83 2d       	mov	r24, r3
    49ec:	8e 7e       	andi	r24, 0xEE	; 238
    49ee:	a8 2e       	mov	r10, r24
    49f0:	05 c0       	rjmp	.+10     	; 0x49fc <vfprintf+0x2ee>
    49f2:	b8 2c       	mov	r11, r8
    49f4:	a3 2c       	mov	r10, r3
    49f6:	03 c0       	rjmp	.+6      	; 0x49fe <vfprintf+0x2f0>
    49f8:	b8 2c       	mov	r11, r8
    49fa:	01 c0       	rjmp	.+2      	; 0x49fe <vfprintf+0x2f0>
    49fc:	b9 2c       	mov	r11, r9
    49fe:	a4 fe       	sbrs	r10, 4
    4a00:	0f c0       	rjmp	.+30     	; 0x4a20 <vfprintf+0x312>
    4a02:	fe 01       	movw	r30, r28
    4a04:	e8 0d       	add	r30, r8
    4a06:	f1 1d       	adc	r31, r1
    4a08:	80 81       	ld	r24, Z
    4a0a:	80 33       	cpi	r24, 0x30	; 48
    4a0c:	21 f4       	brne	.+8      	; 0x4a16 <vfprintf+0x308>
    4a0e:	9a 2d       	mov	r25, r10
    4a10:	99 7e       	andi	r25, 0xE9	; 233
    4a12:	a9 2e       	mov	r10, r25
    4a14:	09 c0       	rjmp	.+18     	; 0x4a28 <vfprintf+0x31a>
    4a16:	a2 fe       	sbrs	r10, 2
    4a18:	06 c0       	rjmp	.+12     	; 0x4a26 <vfprintf+0x318>
    4a1a:	b3 94       	inc	r11
    4a1c:	b3 94       	inc	r11
    4a1e:	04 c0       	rjmp	.+8      	; 0x4a28 <vfprintf+0x31a>
    4a20:	8a 2d       	mov	r24, r10
    4a22:	86 78       	andi	r24, 0x86	; 134
    4a24:	09 f0       	breq	.+2      	; 0x4a28 <vfprintf+0x31a>
    4a26:	b3 94       	inc	r11
    4a28:	a3 fc       	sbrc	r10, 3
    4a2a:	10 c0       	rjmp	.+32     	; 0x4a4c <vfprintf+0x33e>
    4a2c:	a0 fe       	sbrs	r10, 0
    4a2e:	06 c0       	rjmp	.+12     	; 0x4a3c <vfprintf+0x32e>
    4a30:	b2 14       	cp	r11, r2
    4a32:	80 f4       	brcc	.+32     	; 0x4a54 <vfprintf+0x346>
    4a34:	28 0c       	add	r2, r8
    4a36:	92 2c       	mov	r9, r2
    4a38:	9b 18       	sub	r9, r11
    4a3a:	0d c0       	rjmp	.+26     	; 0x4a56 <vfprintf+0x348>
    4a3c:	b2 14       	cp	r11, r2
    4a3e:	58 f4       	brcc	.+22     	; 0x4a56 <vfprintf+0x348>
    4a40:	b6 01       	movw	r22, r12
    4a42:	80 e2       	ldi	r24, 0x20	; 32
    4a44:	90 e0       	ldi	r25, 0x00	; 0
    4a46:	86 d0       	rcall	.+268    	; 0x4b54 <fputc>
    4a48:	b3 94       	inc	r11
    4a4a:	f8 cf       	rjmp	.-16     	; 0x4a3c <vfprintf+0x32e>
    4a4c:	b2 14       	cp	r11, r2
    4a4e:	18 f4       	brcc	.+6      	; 0x4a56 <vfprintf+0x348>
    4a50:	2b 18       	sub	r2, r11
    4a52:	02 c0       	rjmp	.+4      	; 0x4a58 <vfprintf+0x34a>
    4a54:	98 2c       	mov	r9, r8
    4a56:	21 2c       	mov	r2, r1
    4a58:	a4 fe       	sbrs	r10, 4
    4a5a:	0f c0       	rjmp	.+30     	; 0x4a7a <vfprintf+0x36c>
    4a5c:	b6 01       	movw	r22, r12
    4a5e:	80 e3       	ldi	r24, 0x30	; 48
    4a60:	90 e0       	ldi	r25, 0x00	; 0
    4a62:	78 d0       	rcall	.+240    	; 0x4b54 <fputc>
    4a64:	a2 fe       	sbrs	r10, 2
    4a66:	16 c0       	rjmp	.+44     	; 0x4a94 <vfprintf+0x386>
    4a68:	a1 fc       	sbrc	r10, 1
    4a6a:	03 c0       	rjmp	.+6      	; 0x4a72 <vfprintf+0x364>
    4a6c:	88 e7       	ldi	r24, 0x78	; 120
    4a6e:	90 e0       	ldi	r25, 0x00	; 0
    4a70:	02 c0       	rjmp	.+4      	; 0x4a76 <vfprintf+0x368>
    4a72:	88 e5       	ldi	r24, 0x58	; 88
    4a74:	90 e0       	ldi	r25, 0x00	; 0
    4a76:	b6 01       	movw	r22, r12
    4a78:	0c c0       	rjmp	.+24     	; 0x4a92 <vfprintf+0x384>
    4a7a:	8a 2d       	mov	r24, r10
    4a7c:	86 78       	andi	r24, 0x86	; 134
    4a7e:	51 f0       	breq	.+20     	; 0x4a94 <vfprintf+0x386>
    4a80:	a1 fe       	sbrs	r10, 1
    4a82:	02 c0       	rjmp	.+4      	; 0x4a88 <vfprintf+0x37a>
    4a84:	8b e2       	ldi	r24, 0x2B	; 43
    4a86:	01 c0       	rjmp	.+2      	; 0x4a8a <vfprintf+0x37c>
    4a88:	80 e2       	ldi	r24, 0x20	; 32
    4a8a:	a7 fc       	sbrc	r10, 7
    4a8c:	8d e2       	ldi	r24, 0x2D	; 45
    4a8e:	b6 01       	movw	r22, r12
    4a90:	90 e0       	ldi	r25, 0x00	; 0
    4a92:	60 d0       	rcall	.+192    	; 0x4b54 <fputc>
    4a94:	89 14       	cp	r8, r9
    4a96:	30 f4       	brcc	.+12     	; 0x4aa4 <vfprintf+0x396>
    4a98:	b6 01       	movw	r22, r12
    4a9a:	80 e3       	ldi	r24, 0x30	; 48
    4a9c:	90 e0       	ldi	r25, 0x00	; 0
    4a9e:	5a d0       	rcall	.+180    	; 0x4b54 <fputc>
    4aa0:	9a 94       	dec	r9
    4aa2:	f8 cf       	rjmp	.-16     	; 0x4a94 <vfprintf+0x386>
    4aa4:	8a 94       	dec	r8
    4aa6:	f3 01       	movw	r30, r6
    4aa8:	e8 0d       	add	r30, r8
    4aaa:	f1 1d       	adc	r31, r1
    4aac:	80 81       	ld	r24, Z
    4aae:	b6 01       	movw	r22, r12
    4ab0:	90 e0       	ldi	r25, 0x00	; 0
    4ab2:	50 d0       	rcall	.+160    	; 0x4b54 <fputc>
    4ab4:	81 10       	cpse	r8, r1
    4ab6:	f6 cf       	rjmp	.-20     	; 0x4aa4 <vfprintf+0x396>
    4ab8:	22 20       	and	r2, r2
    4aba:	09 f4       	brne	.+2      	; 0x4abe <vfprintf+0x3b0>
    4abc:	4e ce       	rjmp	.-868    	; 0x475a <vfprintf+0x4c>
    4abe:	b6 01       	movw	r22, r12
    4ac0:	80 e2       	ldi	r24, 0x20	; 32
    4ac2:	90 e0       	ldi	r25, 0x00	; 0
    4ac4:	47 d0       	rcall	.+142    	; 0x4b54 <fputc>
    4ac6:	2a 94       	dec	r2
    4ac8:	f7 cf       	rjmp	.-18     	; 0x4ab8 <vfprintf+0x3aa>
    4aca:	f6 01       	movw	r30, r12
    4acc:	86 81       	ldd	r24, Z+6	; 0x06
    4ace:	97 81       	ldd	r25, Z+7	; 0x07
    4ad0:	02 c0       	rjmp	.+4      	; 0x4ad6 <vfprintf+0x3c8>
    4ad2:	8f ef       	ldi	r24, 0xFF	; 255
    4ad4:	9f ef       	ldi	r25, 0xFF	; 255
    4ad6:	2b 96       	adiw	r28, 0x0b	; 11
    4ad8:	0f b6       	in	r0, 0x3f	; 63
    4ada:	f8 94       	cli
    4adc:	de bf       	out	0x3e, r29	; 62
    4ade:	0f be       	out	0x3f, r0	; 63
    4ae0:	cd bf       	out	0x3d, r28	; 61
    4ae2:	df 91       	pop	r29
    4ae4:	cf 91       	pop	r28
    4ae6:	1f 91       	pop	r17
    4ae8:	0f 91       	pop	r16
    4aea:	ff 90       	pop	r15
    4aec:	ef 90       	pop	r14
    4aee:	df 90       	pop	r13
    4af0:	cf 90       	pop	r12
    4af2:	bf 90       	pop	r11
    4af4:	af 90       	pop	r10
    4af6:	9f 90       	pop	r9
    4af8:	8f 90       	pop	r8
    4afa:	7f 90       	pop	r7
    4afc:	6f 90       	pop	r6
    4afe:	5f 90       	pop	r5
    4b00:	4f 90       	pop	r4
    4b02:	3f 90       	pop	r3
    4b04:	2f 90       	pop	r2
    4b06:	08 95       	ret

00004b08 <strnlen_P>:
    4b08:	fc 01       	movw	r30, r24
    4b0a:	05 90       	lpm	r0, Z+
    4b0c:	61 50       	subi	r22, 0x01	; 1
    4b0e:	70 40       	sbci	r23, 0x00	; 0
    4b10:	01 10       	cpse	r0, r1
    4b12:	d8 f7       	brcc	.-10     	; 0x4b0a <strnlen_P+0x2>
    4b14:	80 95       	com	r24
    4b16:	90 95       	com	r25
    4b18:	8e 0f       	add	r24, r30
    4b1a:	9f 1f       	adc	r25, r31
    4b1c:	08 95       	ret

00004b1e <strnlen>:
    4b1e:	fc 01       	movw	r30, r24
    4b20:	61 50       	subi	r22, 0x01	; 1
    4b22:	70 40       	sbci	r23, 0x00	; 0
    4b24:	01 90       	ld	r0, Z+
    4b26:	01 10       	cpse	r0, r1
    4b28:	d8 f7       	brcc	.-10     	; 0x4b20 <strnlen+0x2>
    4b2a:	80 95       	com	r24
    4b2c:	90 95       	com	r25
    4b2e:	8e 0f       	add	r24, r30
    4b30:	9f 1f       	adc	r25, r31
    4b32:	08 95       	ret

00004b34 <strrev>:
    4b34:	dc 01       	movw	r26, r24
    4b36:	fc 01       	movw	r30, r24
    4b38:	67 2f       	mov	r22, r23
    4b3a:	71 91       	ld	r23, Z+
    4b3c:	77 23       	and	r23, r23
    4b3e:	e1 f7       	brne	.-8      	; 0x4b38 <strrev+0x4>
    4b40:	32 97       	sbiw	r30, 0x02	; 2
    4b42:	04 c0       	rjmp	.+8      	; 0x4b4c <strrev+0x18>
    4b44:	7c 91       	ld	r23, X
    4b46:	6d 93       	st	X+, r22
    4b48:	70 83       	st	Z, r23
    4b4a:	62 91       	ld	r22, -Z
    4b4c:	ae 17       	cp	r26, r30
    4b4e:	bf 07       	cpc	r27, r31
    4b50:	c8 f3       	brcs	.-14     	; 0x4b44 <strrev+0x10>
    4b52:	08 95       	ret

00004b54 <fputc>:
    4b54:	0f 93       	push	r16
    4b56:	1f 93       	push	r17
    4b58:	cf 93       	push	r28
    4b5a:	df 93       	push	r29
    4b5c:	fb 01       	movw	r30, r22
    4b5e:	23 81       	ldd	r18, Z+3	; 0x03
    4b60:	21 fd       	sbrc	r18, 1
    4b62:	03 c0       	rjmp	.+6      	; 0x4b6a <fputc+0x16>
    4b64:	8f ef       	ldi	r24, 0xFF	; 255
    4b66:	9f ef       	ldi	r25, 0xFF	; 255
    4b68:	2c c0       	rjmp	.+88     	; 0x4bc2 <fputc+0x6e>
    4b6a:	22 ff       	sbrs	r18, 2
    4b6c:	16 c0       	rjmp	.+44     	; 0x4b9a <fputc+0x46>
    4b6e:	46 81       	ldd	r20, Z+6	; 0x06
    4b70:	57 81       	ldd	r21, Z+7	; 0x07
    4b72:	24 81       	ldd	r18, Z+4	; 0x04
    4b74:	35 81       	ldd	r19, Z+5	; 0x05
    4b76:	42 17       	cp	r20, r18
    4b78:	53 07       	cpc	r21, r19
    4b7a:	44 f4       	brge	.+16     	; 0x4b8c <fputc+0x38>
    4b7c:	a0 81       	ld	r26, Z
    4b7e:	b1 81       	ldd	r27, Z+1	; 0x01
    4b80:	9d 01       	movw	r18, r26
    4b82:	2f 5f       	subi	r18, 0xFF	; 255
    4b84:	3f 4f       	sbci	r19, 0xFF	; 255
    4b86:	31 83       	std	Z+1, r19	; 0x01
    4b88:	20 83       	st	Z, r18
    4b8a:	8c 93       	st	X, r24
    4b8c:	26 81       	ldd	r18, Z+6	; 0x06
    4b8e:	37 81       	ldd	r19, Z+7	; 0x07
    4b90:	2f 5f       	subi	r18, 0xFF	; 255
    4b92:	3f 4f       	sbci	r19, 0xFF	; 255
    4b94:	37 83       	std	Z+7, r19	; 0x07
    4b96:	26 83       	std	Z+6, r18	; 0x06
    4b98:	14 c0       	rjmp	.+40     	; 0x4bc2 <fputc+0x6e>
    4b9a:	8b 01       	movw	r16, r22
    4b9c:	ec 01       	movw	r28, r24
    4b9e:	fb 01       	movw	r30, r22
    4ba0:	00 84       	ldd	r0, Z+8	; 0x08
    4ba2:	f1 85       	ldd	r31, Z+9	; 0x09
    4ba4:	e0 2d       	mov	r30, r0
    4ba6:	09 95       	icall
    4ba8:	89 2b       	or	r24, r25
    4baa:	e1 f6       	brne	.-72     	; 0x4b64 <fputc+0x10>
    4bac:	d8 01       	movw	r26, r16
    4bae:	16 96       	adiw	r26, 0x06	; 6
    4bb0:	8d 91       	ld	r24, X+
    4bb2:	9c 91       	ld	r25, X
    4bb4:	17 97       	sbiw	r26, 0x07	; 7
    4bb6:	01 96       	adiw	r24, 0x01	; 1
    4bb8:	17 96       	adiw	r26, 0x07	; 7
    4bba:	9c 93       	st	X, r25
    4bbc:	8e 93       	st	-X, r24
    4bbe:	16 97       	sbiw	r26, 0x06	; 6
    4bc0:	ce 01       	movw	r24, r28
    4bc2:	df 91       	pop	r29
    4bc4:	cf 91       	pop	r28
    4bc6:	1f 91       	pop	r17
    4bc8:	0f 91       	pop	r16
    4bca:	08 95       	ret

00004bcc <__ultoa_invert>:
    4bcc:	fa 01       	movw	r30, r20
    4bce:	aa 27       	eor	r26, r26
    4bd0:	28 30       	cpi	r18, 0x08	; 8
    4bd2:	51 f1       	breq	.+84     	; 0x4c28 <__ultoa_invert+0x5c>
    4bd4:	20 31       	cpi	r18, 0x10	; 16
    4bd6:	81 f1       	breq	.+96     	; 0x4c38 <__ultoa_invert+0x6c>
    4bd8:	e8 94       	clt
    4bda:	6f 93       	push	r22
    4bdc:	6e 7f       	andi	r22, 0xFE	; 254
    4bde:	6e 5f       	subi	r22, 0xFE	; 254
    4be0:	7f 4f       	sbci	r23, 0xFF	; 255
    4be2:	8f 4f       	sbci	r24, 0xFF	; 255
    4be4:	9f 4f       	sbci	r25, 0xFF	; 255
    4be6:	af 4f       	sbci	r26, 0xFF	; 255
    4be8:	b1 e0       	ldi	r27, 0x01	; 1
    4bea:	3e d0       	rcall	.+124    	; 0x4c68 <__ultoa_invert+0x9c>
    4bec:	b4 e0       	ldi	r27, 0x04	; 4
    4bee:	3c d0       	rcall	.+120    	; 0x4c68 <__ultoa_invert+0x9c>
    4bf0:	67 0f       	add	r22, r23
    4bf2:	78 1f       	adc	r23, r24
    4bf4:	89 1f       	adc	r24, r25
    4bf6:	9a 1f       	adc	r25, r26
    4bf8:	a1 1d       	adc	r26, r1
    4bfa:	68 0f       	add	r22, r24
    4bfc:	79 1f       	adc	r23, r25
    4bfe:	8a 1f       	adc	r24, r26
    4c00:	91 1d       	adc	r25, r1
    4c02:	a1 1d       	adc	r26, r1
    4c04:	6a 0f       	add	r22, r26
    4c06:	71 1d       	adc	r23, r1
    4c08:	81 1d       	adc	r24, r1
    4c0a:	91 1d       	adc	r25, r1
    4c0c:	a1 1d       	adc	r26, r1
    4c0e:	20 d0       	rcall	.+64     	; 0x4c50 <__ultoa_invert+0x84>
    4c10:	09 f4       	brne	.+2      	; 0x4c14 <__ultoa_invert+0x48>
    4c12:	68 94       	set
    4c14:	3f 91       	pop	r19
    4c16:	2a e0       	ldi	r18, 0x0A	; 10
    4c18:	26 9f       	mul	r18, r22
    4c1a:	11 24       	eor	r1, r1
    4c1c:	30 19       	sub	r19, r0
    4c1e:	30 5d       	subi	r19, 0xD0	; 208
    4c20:	31 93       	st	Z+, r19
    4c22:	de f6       	brtc	.-74     	; 0x4bda <__ultoa_invert+0xe>
    4c24:	cf 01       	movw	r24, r30
    4c26:	08 95       	ret
    4c28:	46 2f       	mov	r20, r22
    4c2a:	47 70       	andi	r20, 0x07	; 7
    4c2c:	40 5d       	subi	r20, 0xD0	; 208
    4c2e:	41 93       	st	Z+, r20
    4c30:	b3 e0       	ldi	r27, 0x03	; 3
    4c32:	0f d0       	rcall	.+30     	; 0x4c52 <__ultoa_invert+0x86>
    4c34:	c9 f7       	brne	.-14     	; 0x4c28 <__ultoa_invert+0x5c>
    4c36:	f6 cf       	rjmp	.-20     	; 0x4c24 <__ultoa_invert+0x58>
    4c38:	46 2f       	mov	r20, r22
    4c3a:	4f 70       	andi	r20, 0x0F	; 15
    4c3c:	40 5d       	subi	r20, 0xD0	; 208
    4c3e:	4a 33       	cpi	r20, 0x3A	; 58
    4c40:	18 f0       	brcs	.+6      	; 0x4c48 <__ultoa_invert+0x7c>
    4c42:	49 5d       	subi	r20, 0xD9	; 217
    4c44:	31 fd       	sbrc	r19, 1
    4c46:	40 52       	subi	r20, 0x20	; 32
    4c48:	41 93       	st	Z+, r20
    4c4a:	02 d0       	rcall	.+4      	; 0x4c50 <__ultoa_invert+0x84>
    4c4c:	a9 f7       	brne	.-22     	; 0x4c38 <__ultoa_invert+0x6c>
    4c4e:	ea cf       	rjmp	.-44     	; 0x4c24 <__ultoa_invert+0x58>
    4c50:	b4 e0       	ldi	r27, 0x04	; 4
    4c52:	a6 95       	lsr	r26
    4c54:	97 95       	ror	r25
    4c56:	87 95       	ror	r24
    4c58:	77 95       	ror	r23
    4c5a:	67 95       	ror	r22
    4c5c:	ba 95       	dec	r27
    4c5e:	c9 f7       	brne	.-14     	; 0x4c52 <__ultoa_invert+0x86>
    4c60:	00 97       	sbiw	r24, 0x00	; 0
    4c62:	61 05       	cpc	r22, r1
    4c64:	71 05       	cpc	r23, r1
    4c66:	08 95       	ret
    4c68:	9b 01       	movw	r18, r22
    4c6a:	ac 01       	movw	r20, r24
    4c6c:	0a 2e       	mov	r0, r26
    4c6e:	06 94       	lsr	r0
    4c70:	57 95       	ror	r21
    4c72:	47 95       	ror	r20
    4c74:	37 95       	ror	r19
    4c76:	27 95       	ror	r18
    4c78:	ba 95       	dec	r27
    4c7a:	c9 f7       	brne	.-14     	; 0x4c6e <__ultoa_invert+0xa2>
    4c7c:	62 0f       	add	r22, r18
    4c7e:	73 1f       	adc	r23, r19
    4c80:	84 1f       	adc	r24, r20
    4c82:	95 1f       	adc	r25, r21
    4c84:	a0 1d       	adc	r26, r0
    4c86:	08 95       	ret

00004c88 <eeprom_read_byte>:
    4c88:	f9 99       	sbic	0x1f, 1	; 31
    4c8a:	fe cf       	rjmp	.-4      	; 0x4c88 <eeprom_read_byte>
    4c8c:	92 bd       	out	0x22, r25	; 34
    4c8e:	81 bd       	out	0x21, r24	; 33
    4c90:	f8 9a       	sbi	0x1f, 0	; 31
    4c92:	99 27       	eor	r25, r25
    4c94:	80 b5       	in	r24, 0x20	; 32
    4c96:	08 95       	ret

00004c98 <eeprom_update_byte>:
    4c98:	26 2f       	mov	r18, r22

00004c9a <eeprom_update_r18>:
    4c9a:	f9 99       	sbic	0x1f, 1	; 31
    4c9c:	fe cf       	rjmp	.-4      	; 0x4c9a <eeprom_update_r18>
    4c9e:	92 bd       	out	0x22, r25	; 34
    4ca0:	81 bd       	out	0x21, r24	; 33
    4ca2:	f8 9a       	sbi	0x1f, 0	; 31
    4ca4:	01 97       	sbiw	r24, 0x01	; 1
    4ca6:	00 b4       	in	r0, 0x20	; 32
    4ca8:	02 16       	cp	r0, r18
    4caa:	39 f0       	breq	.+14     	; 0x4cba <eeprom_update_r18+0x20>
    4cac:	1f ba       	out	0x1f, r1	; 31
    4cae:	20 bd       	out	0x20, r18	; 32
    4cb0:	0f b6       	in	r0, 0x3f	; 63
    4cb2:	f8 94       	cli
    4cb4:	fa 9a       	sbi	0x1f, 2	; 31
    4cb6:	f9 9a       	sbi	0x1f, 1	; 31
    4cb8:	0f be       	out	0x3f, r0	; 63
    4cba:	08 95       	ret

00004cbc <__divmodsi4>:
    4cbc:	05 2e       	mov	r0, r21
    4cbe:	97 fb       	bst	r25, 7
    4cc0:	16 f4       	brtc	.+4      	; 0x4cc6 <__divmodsi4+0xa>
    4cc2:	00 94       	com	r0
    4cc4:	0f d0       	rcall	.+30     	; 0x4ce4 <__negsi2>
    4cc6:	57 fd       	sbrc	r21, 7
    4cc8:	05 d0       	rcall	.+10     	; 0x4cd4 <__divmodsi4_neg2>
    4cca:	eb da       	rcall	.-2602   	; 0x42a2 <__udivmodsi4>
    4ccc:	07 fc       	sbrc	r0, 7
    4cce:	02 d0       	rcall	.+4      	; 0x4cd4 <__divmodsi4_neg2>
    4cd0:	46 f4       	brtc	.+16     	; 0x4ce2 <__divmodsi4_exit>
    4cd2:	08 c0       	rjmp	.+16     	; 0x4ce4 <__negsi2>

00004cd4 <__divmodsi4_neg2>:
    4cd4:	50 95       	com	r21
    4cd6:	40 95       	com	r20
    4cd8:	30 95       	com	r19
    4cda:	21 95       	neg	r18
    4cdc:	3f 4f       	sbci	r19, 0xFF	; 255
    4cde:	4f 4f       	sbci	r20, 0xFF	; 255
    4ce0:	5f 4f       	sbci	r21, 0xFF	; 255

00004ce2 <__divmodsi4_exit>:
    4ce2:	08 95       	ret

00004ce4 <__negsi2>:
    4ce4:	90 95       	com	r25
    4ce6:	80 95       	com	r24
    4ce8:	70 95       	com	r23
    4cea:	61 95       	neg	r22
    4cec:	7f 4f       	sbci	r23, 0xFF	; 255
    4cee:	8f 4f       	sbci	r24, 0xFF	; 255
    4cf0:	9f 4f       	sbci	r25, 0xFF	; 255
    4cf2:	08 95       	ret

00004cf4 <__mulshisi3>:
    4cf4:	b7 ff       	sbrs	r27, 7
    4cf6:	0f cb       	rjmp	.-2530   	; 0x4316 <__muluhisi3>

00004cf8 <__mulohisi3>:
    4cf8:	0e db       	rcall	.-2532   	; 0x4316 <__muluhisi3>
    4cfa:	82 1b       	sub	r24, r18
    4cfc:	93 0b       	sbc	r25, r19
    4cfe:	08 95       	ret

00004d00 <_exit>:
    4d00:	f8 94       	cli

00004d02 <__stop_program>:
    4d02:	ff cf       	rjmp	.-2      	; 0x4d02 <__stop_program>
